
file.exe:     file format pei-i386


Disassembly of section .text:

00401000 <.text>:
  401000:	83 ec 1c             	sub    $0x1c,%esp
  401003:	8b 44 24 20          	mov    0x20(%esp),%eax
  401007:	8b 00                	mov    (%eax),%eax
  401009:	8b 00                	mov    (%eax),%eax
  40100b:	3d 91 00 00 c0       	cmp    $0xc0000091,%eax
  401010:	77 4e                	ja     401060 <.text+0x60>
  401012:	3d 8d 00 00 c0       	cmp    $0xc000008d,%eax
  401017:	73 60                	jae    401079 <.text+0x79>
  401019:	3d 05 00 00 c0       	cmp    $0xc0000005,%eax
  40101e:	0f 85 cc 00 00 00    	jne    4010f0 <.text+0xf0>
  401024:	c7 44 24 04 00 00 00 	movl   $0x0,0x4(%esp)
  40102b:	00 
  40102c:	c7 04 24 0b 00 00 00 	movl   $0xb,(%esp)
  401033:	e8 20 2a 00 00       	call   403a58 <_signal>
  401038:	83 f8 01             	cmp    $0x1,%eax
  40103b:	0f 84 48 01 00 00    	je     401189 <.text+0x189>
  401041:	85 c0                	test   %eax,%eax
  401043:	0f 85 e7 00 00 00    	jne    401130 <.text+0x130>
  401049:	8d b4 26 00 00 00 00 	lea    0x0(%esi,%eiz,1),%esi
  401050:	31 c0                	xor    %eax,%eax
  401052:	83 c4 1c             	add    $0x1c,%esp
  401055:	c2 04 00             	ret    $0x4
  401058:	90                   	nop
  401059:	8d b4 26 00 00 00 00 	lea    0x0(%esi,%eiz,1),%esi
  401060:	3d 94 00 00 c0       	cmp    $0xc0000094,%eax
  401065:	74 49                	je     4010b0 <.text+0xb0>
  401067:	3d 96 00 00 c0       	cmp    $0xc0000096,%eax
  40106c:	0f 84 89 00 00 00    	je     4010fb <.text+0xfb>
  401072:	3d 93 00 00 c0       	cmp    $0xc0000093,%eax
  401077:	75 d7                	jne    401050 <.text+0x50>
  401079:	c7 44 24 04 00 00 00 	movl   $0x0,0x4(%esp)
  401080:	00 
  401081:	c7 04 24 08 00 00 00 	movl   $0x8,(%esp)
  401088:	e8 cb 29 00 00       	call   403a58 <_signal>
  40108d:	83 f8 01             	cmp    $0x1,%eax
  401090:	0f 84 ad 00 00 00    	je     401143 <.text+0x143>
  401096:	85 c0                	test   %eax,%eax
  401098:	74 b6                	je     401050 <.text+0x50>
  40109a:	c7 04 24 08 00 00 00 	movl   $0x8,(%esp)
  4010a1:	ff d0                	call   *%eax
  4010a3:	b8 ff ff ff ff       	mov    $0xffffffff,%eax
  4010a8:	eb a8                	jmp    401052 <.text+0x52>
  4010aa:	8d b6 00 00 00 00    	lea    0x0(%esi),%esi
  4010b0:	c7 44 24 04 00 00 00 	movl   $0x0,0x4(%esp)
  4010b7:	00 
  4010b8:	c7 04 24 08 00 00 00 	movl   $0x8,(%esp)
  4010bf:	e8 94 29 00 00       	call   403a58 <_signal>
  4010c4:	83 f8 01             	cmp    $0x1,%eax
  4010c7:	75 cd                	jne    401096 <.text+0x96>
  4010c9:	c7 44 24 04 01 00 00 	movl   $0x1,0x4(%esp)
  4010d0:	00 
  4010d1:	c7 04 24 08 00 00 00 	movl   $0x8,(%esp)
  4010d8:	e8 7b 29 00 00       	call   403a58 <_signal>
  4010dd:	b8 ff ff ff ff       	mov    $0xffffffff,%eax
  4010e2:	e9 6b ff ff ff       	jmp    401052 <.text+0x52>
  4010e7:	89 f6                	mov    %esi,%esi
  4010e9:	8d bc 27 00 00 00 00 	lea    0x0(%edi,%eiz,1),%edi
  4010f0:	3d 1d 00 00 c0       	cmp    $0xc000001d,%eax
  4010f5:	0f 85 55 ff ff ff    	jne    401050 <.text+0x50>
  4010fb:	c7 44 24 04 00 00 00 	movl   $0x0,0x4(%esp)
  401102:	00 
  401103:	c7 04 24 04 00 00 00 	movl   $0x4,(%esp)
  40110a:	e8 49 29 00 00       	call   403a58 <_signal>
  40110f:	83 f8 01             	cmp    $0x1,%eax
  401112:	74 59                	je     40116d <.text+0x16d>
  401114:	85 c0                	test   %eax,%eax
  401116:	0f 84 34 ff ff ff    	je     401050 <.text+0x50>
  40111c:	c7 04 24 04 00 00 00 	movl   $0x4,(%esp)
  401123:	ff d0                	call   *%eax
  401125:	b8 ff ff ff ff       	mov    $0xffffffff,%eax
  40112a:	e9 23 ff ff ff       	jmp    401052 <.text+0x52>
  40112f:	90                   	nop
  401130:	c7 04 24 0b 00 00 00 	movl   $0xb,(%esp)
  401137:	ff d0                	call   *%eax
  401139:	b8 ff ff ff ff       	mov    $0xffffffff,%eax
  40113e:	e9 0f ff ff ff       	jmp    401052 <.text+0x52>
  401143:	c7 44 24 04 01 00 00 	movl   $0x1,0x4(%esp)
  40114a:	00 
  40114b:	c7 04 24 08 00 00 00 	movl   $0x8,(%esp)
  401152:	e8 01 29 00 00       	call   403a58 <_signal>
  401157:	c7 04 24 00 00 00 00 	movl   $0x0,(%esp)
  40115e:	e8 ed 0e 00 00       	call   402050 <_fesetenv>
  401163:	b8 ff ff ff ff       	mov    $0xffffffff,%eax
  401168:	e9 e5 fe ff ff       	jmp    401052 <.text+0x52>
  40116d:	c7 44 24 04 01 00 00 	movl   $0x1,0x4(%esp)
  401174:	00 
  401175:	c7 04 24 04 00 00 00 	movl   $0x4,(%esp)
  40117c:	e8 d7 28 00 00       	call   403a58 <_signal>
  401181:	83 c8 ff             	or     $0xffffffff,%eax
  401184:	e9 c9 fe ff ff       	jmp    401052 <.text+0x52>
  401189:	c7 44 24 04 01 00 00 	movl   $0x1,0x4(%esp)
  401190:	00 
  401191:	c7 04 24 0b 00 00 00 	movl   $0xb,(%esp)
  401198:	e8 bb 28 00 00       	call   403a58 <_signal>
  40119d:	83 c8 ff             	or     $0xffffffff,%eax
  4011a0:	e9 ad fe ff ff       	jmp    401052 <.text+0x52>
  4011a5:	8d 74 26 00          	lea    0x0(%esi,%eiz,1),%esi
  4011a9:	8d bc 27 00 00 00 00 	lea    0x0(%edi,%eiz,1),%edi
  4011b0:	55                   	push   %ebp
  4011b1:	89 e5                	mov    %esp,%ebp
  4011b3:	53                   	push   %ebx
  4011b4:	83 ec 14             	sub    $0x14,%esp
  4011b7:	a1 64 50 40 00       	mov    0x405064,%eax
  4011bc:	85 c0                	test   %eax,%eax
  4011be:	74 1c                	je     4011dc <.text+0x1dc>
  4011c0:	c7 44 24 08 00 00 00 	movl   $0x0,0x8(%esp)
  4011c7:	00 
  4011c8:	c7 44 24 04 02 00 00 	movl   $0x2,0x4(%esp)
  4011cf:	00 
  4011d0:	c7 04 24 00 00 00 00 	movl   $0x0,(%esp)
  4011d7:	ff d0                	call   *%eax
  4011d9:	83 ec 0c             	sub    $0xc,%esp
  4011dc:	c7 04 24 00 10 40 00 	movl   $0x401000,(%esp)
  4011e3:	e8 18 29 00 00       	call   403b00 <_SetUnhandledExceptionFilter@4>
  4011e8:	83 ec 04             	sub    $0x4,%esp
  4011eb:	e8 50 06 00 00       	call   401840 <___cpu_features_init>
  4011f0:	a1 08 40 40 00       	mov    0x404008,%eax
  4011f5:	89 04 24             	mov    %eax,(%esp)
  4011f8:	e8 53 0e 00 00       	call   402050 <_fesetenv>
  4011fd:	e8 9e 02 00 00       	call   4014a0 <__setargv>
  401202:	a1 20 70 40 00       	mov    0x407020,%eax
  401207:	85 c0                	test   %eax,%eax
  401209:	74 42                	je     40124d <.text+0x24d>
  40120b:	8b 1d a0 81 40 00    	mov    0x4081a0,%ebx
  401211:	a3 0c 40 40 00       	mov    %eax,0x40400c
  401216:	89 44 24 04          	mov    %eax,0x4(%esp)
  40121a:	8b 43 10             	mov    0x10(%ebx),%eax
  40121d:	89 04 24             	mov    %eax,(%esp)
  401220:	e8 83 28 00 00       	call   403aa8 <__setmode>
  401225:	a1 20 70 40 00       	mov    0x407020,%eax
  40122a:	89 44 24 04          	mov    %eax,0x4(%esp)
  40122e:	8b 43 30             	mov    0x30(%ebx),%eax
  401231:	89 04 24             	mov    %eax,(%esp)
  401234:	e8 6f 28 00 00       	call   403aa8 <__setmode>
  401239:	a1 20 70 40 00       	mov    0x407020,%eax
  40123e:	89 44 24 04          	mov    %eax,0x4(%esp)
  401242:	8b 43 50             	mov    0x50(%ebx),%eax
  401245:	89 04 24             	mov    %eax,(%esp)
  401248:	e8 5b 28 00 00       	call   403aa8 <__setmode>
  40124d:	e8 7e 28 00 00       	call   403ad0 <___p__fmode>
  401252:	8b 15 0c 40 40 00    	mov    0x40400c,%edx
  401258:	89 10                	mov    %edx,(%eax)
  40125a:	e8 f1 0b 00 00       	call   401e50 <__pei386_runtime_relocator>
  40125f:	83 e4 f0             	and    $0xfffffff0,%esp
  401262:	e8 69 07 00 00       	call   4019d0 <___main>
  401267:	e8 6c 28 00 00       	call   403ad8 <___p__environ>
  40126c:	8b 00                	mov    (%eax),%eax
  40126e:	89 44 24 08          	mov    %eax,0x8(%esp)
  401272:	a1 00 70 40 00       	mov    0x407000,%eax
  401277:	89 44 24 04          	mov    %eax,0x4(%esp)
  40127b:	a1 04 70 40 00       	mov    0x407004,%eax
  401280:	89 04 24             	mov    %eax,(%esp)
  401283:	e8 e4 01 00 00       	call   40146c <_main>
  401288:	89 c3                	mov    %eax,%ebx
  40128a:	e8 39 28 00 00       	call   403ac8 <__cexit>
  40128f:	89 1c 24             	mov    %ebx,(%esp)
  401292:	e8 c9 28 00 00       	call   403b60 <_ExitProcess@4>
  401297:	89 f6                	mov    %esi,%esi
  401299:	8d bc 27 00 00 00 00 	lea    0x0(%edi,%eiz,1),%edi

004012a0 <__mingw32_init_mainargs>:
  4012a0:	83 ec 3c             	sub    $0x3c,%esp
  4012a3:	8d 44 24 2c          	lea    0x2c(%esp),%eax
  4012a7:	c7 44 24 04 00 70 40 	movl   $0x407000,0x4(%esp)
  4012ae:	00 
  4012af:	c7 04 24 04 70 40 00 	movl   $0x407004,(%esp)
  4012b6:	c7 44 24 2c 00 00 00 	movl   $0x0,0x2c(%esp)
  4012bd:	00 
  4012be:	89 44 24 10          	mov    %eax,0x10(%esp)
  4012c2:	a1 04 40 40 00       	mov    0x404004,%eax
  4012c7:	83 e0 01             	and    $0x1,%eax
  4012ca:	89 44 24 0c          	mov    %eax,0xc(%esp)
  4012ce:	8d 44 24 28          	lea    0x28(%esp),%eax
  4012d2:	89 44 24 08          	mov    %eax,0x8(%esp)
  4012d6:	e8 05 28 00 00       	call   403ae0 <___getmainargs>
  4012db:	83 c4 3c             	add    $0x3c,%esp
  4012de:	c3                   	ret    
  4012df:	90                   	nop

004012e0 <_mainCRTStartup>:
  4012e0:	83 ec 1c             	sub    $0x1c,%esp
  4012e3:	c7 04 24 01 00 00 00 	movl   $0x1,(%esp)
  4012ea:	ff 15 8c 81 40 00    	call   *0x40818c
  4012f0:	e8 bb fe ff ff       	call   4011b0 <.text+0x1b0>
  4012f5:	8d 74 26 00          	lea    0x0(%esi,%eiz,1),%esi
  4012f9:	8d bc 27 00 00 00 00 	lea    0x0(%edi,%eiz,1),%edi

00401300 <_WinMainCRTStartup>:
  401300:	83 ec 1c             	sub    $0x1c,%esp
  401303:	c7 04 24 02 00 00 00 	movl   $0x2,(%esp)
  40130a:	ff 15 8c 81 40 00    	call   *0x40818c
  401310:	e8 9b fe ff ff       	call   4011b0 <.text+0x1b0>
  401315:	8d 74 26 00          	lea    0x0(%esi,%eiz,1),%esi
  401319:	8d bc 27 00 00 00 00 	lea    0x0(%edi,%eiz,1),%edi

00401320 <_atexit>:
  401320:	ff 25 b8 81 40 00    	jmp    *0x4081b8
  401326:	8d 76 00             	lea    0x0(%esi),%esi
  401329:	8d bc 27 00 00 00 00 	lea    0x0(%edi,%eiz,1),%edi

00401330 <__onexit>:
  401330:	ff 25 a8 81 40 00    	jmp    *0x4081a8
  401336:	90                   	nop
  401337:	90                   	nop
  401338:	90                   	nop
  401339:	90                   	nop
  40133a:	90                   	nop
  40133b:	90                   	nop
  40133c:	90                   	nop
  40133d:	90                   	nop
  40133e:	90                   	nop
  40133f:	90                   	nop

00401340 <___gcc_register_frame>:
  401340:	55                   	push   %ebp
  401341:	89 e5                	mov    %esp,%ebp
  401343:	56                   	push   %esi
  401344:	53                   	push   %ebx
  401345:	83 ec 10             	sub    $0x10,%esp
  401348:	c7 04 24 00 50 40 00 	movl   $0x405000,(%esp)
  40134f:	e8 d4 27 00 00       	call   403b28 <_GetModuleHandleA@4>
  401354:	83 ec 04             	sub    $0x4,%esp
  401357:	85 c0                	test   %eax,%eax
  401359:	0f 84 b1 00 00 00    	je     401410 <___gcc_register_frame+0xd0>
  40135f:	c7 04 24 00 50 40 00 	movl   $0x405000,(%esp)
  401366:	89 c3                	mov    %eax,%ebx
  401368:	e8 9b 27 00 00       	call   403b08 <_LoadLibraryA@4>
  40136d:	83 ec 04             	sub    $0x4,%esp
  401370:	a3 6c 70 40 00       	mov    %eax,0x40706c
  401375:	c7 44 24 04 13 50 40 	movl   $0x405013,0x4(%esp)
  40137c:	00 
  40137d:	89 1c 24             	mov    %ebx,(%esp)
  401380:	e8 9b 27 00 00       	call   403b20 <_GetProcAddress@8>
  401385:	83 ec 08             	sub    $0x8,%esp
  401388:	89 c6                	mov    %eax,%esi
  40138a:	c7 44 24 04 29 50 40 	movl   $0x405029,0x4(%esp)
  401391:	00 
  401392:	89 1c 24             	mov    %ebx,(%esp)
  401395:	e8 86 27 00 00       	call   403b20 <_GetProcAddress@8>
  40139a:	83 ec 08             	sub    $0x8,%esp
  40139d:	a3 00 40 40 00       	mov    %eax,0x404000
  4013a2:	85 f6                	test   %esi,%esi
  4013a4:	74 11                	je     4013b7 <___gcc_register_frame+0x77>
  4013a6:	c7 44 24 04 08 70 40 	movl   $0x407008,0x4(%esp)
  4013ad:	00 
  4013ae:	c7 04 24 b8 60 40 00 	movl   $0x4060b8,(%esp)
  4013b5:	ff d6                	call   *%esi
  4013b7:	a1 18 40 40 00       	mov    0x404018,%eax
  4013bc:	85 c0                	test   %eax,%eax
  4013be:	74 3a                	je     4013fa <___gcc_register_frame+0xba>
  4013c0:	c7 04 24 41 50 40 00 	movl   $0x405041,(%esp)
  4013c7:	e8 5c 27 00 00       	call   403b28 <_GetModuleHandleA@4>
  4013cc:	83 ec 04             	sub    $0x4,%esp
  4013cf:	85 c0                	test   %eax,%eax
  4013d1:	ba 00 00 00 00       	mov    $0x0,%edx
  4013d6:	74 15                	je     4013ed <___gcc_register_frame+0xad>
  4013d8:	c7 44 24 04 4f 50 40 	movl   $0x40504f,0x4(%esp)
  4013df:	00 
  4013e0:	89 04 24             	mov    %eax,(%esp)
  4013e3:	e8 38 27 00 00       	call   403b20 <_GetProcAddress@8>
  4013e8:	83 ec 08             	sub    $0x8,%esp
  4013eb:	89 c2                	mov    %eax,%edx
  4013ed:	85 d2                	test   %edx,%edx
  4013ef:	74 09                	je     4013fa <___gcc_register_frame+0xba>
  4013f1:	c7 04 24 18 40 40 00 	movl   $0x404018,(%esp)
  4013f8:	ff d2                	call   *%edx
  4013fa:	c7 04 24 30 14 40 00 	movl   $0x401430,(%esp)
  401401:	e8 1a ff ff ff       	call   401320 <_atexit>
  401406:	8d 65 f8             	lea    -0x8(%ebp),%esp
  401409:	5b                   	pop    %ebx
  40140a:	5e                   	pop    %esi
  40140b:	5d                   	pop    %ebp
  40140c:	c3                   	ret    
  40140d:	8d 76 00             	lea    0x0(%esi),%esi
  401410:	c7 05 00 40 40 00 00 	movl   $0x0,0x404000
  401417:	00 00 00 
  40141a:	be 00 00 00 00       	mov    $0x0,%esi
  40141f:	eb 81                	jmp    4013a2 <___gcc_register_frame+0x62>
  401421:	eb 0d                	jmp    401430 <___gcc_deregister_frame>
  401423:	90                   	nop
  401424:	90                   	nop
  401425:	90                   	nop
  401426:	90                   	nop
  401427:	90                   	nop
  401428:	90                   	nop
  401429:	90                   	nop
  40142a:	90                   	nop
  40142b:	90                   	nop
  40142c:	90                   	nop
  40142d:	90                   	nop
  40142e:	90                   	nop
  40142f:	90                   	nop

00401430 <___gcc_deregister_frame>:
  401430:	55                   	push   %ebp
  401431:	89 e5                	mov    %esp,%ebp
  401433:	83 ec 18             	sub    $0x18,%esp
  401436:	a1 00 40 40 00       	mov    0x404000,%eax
  40143b:	85 c0                	test   %eax,%eax
  40143d:	74 09                	je     401448 <___gcc_deregister_frame+0x18>
  40143f:	c7 04 24 b8 60 40 00 	movl   $0x4060b8,(%esp)
  401446:	ff d0                	call   *%eax
  401448:	a1 6c 70 40 00       	mov    0x40706c,%eax
  40144d:	85 c0                	test   %eax,%eax
  40144f:	74 0b                	je     40145c <___gcc_deregister_frame+0x2c>
  401451:	89 04 24             	mov    %eax,(%esp)
  401454:	e8 e7 26 00 00       	call   403b40 <_FreeLibrary@4>
  401459:	83 ec 04             	sub    $0x4,%esp
  40145c:	c9                   	leave  
  40145d:	c3                   	ret    
  40145e:	90                   	nop
  40145f:	90                   	nop

00401460 <_square>:
  401460:	55                   	push   %ebp
  401461:	89 e5                	mov    %esp,%ebp
  401463:	8b 45 08             	mov    0x8(%ebp),%eax
  401466:	0f af 45 08          	imul   0x8(%ebp),%eax
  40146a:	5d                   	pop    %ebp
  40146b:	c3                   	ret    

0040146c <_main>:
  40146c:	55                   	push   %ebp
  40146d:	89 e5                	mov    %esp,%ebp
  40146f:	83 e4 f0             	and    $0xfffffff0,%esp
  401472:	83 ec 20             	sub    $0x20,%esp
  401475:	e8 56 05 00 00       	call   4019d0 <___main>
  40147a:	c7 44 24 1c 0c 00 00 	movl   $0xc,0x1c(%esp)
  401481:	00 
  401482:	c7 04 24 0c 00 00 00 	movl   $0xc,(%esp)
  401489:	e8 d2 ff ff ff       	call   401460 <_square>
  40148e:	b8 00 00 00 00       	mov    $0x0,%eax
  401493:	c9                   	leave  
  401494:	c3                   	ret    
  401495:	90                   	nop
  401496:	90                   	nop
  401497:	90                   	nop
  401498:	66 90                	xchg   %ax,%ax
  40149a:	66 90                	xchg   %ax,%ax
  40149c:	66 90                	xchg   %ax,%ax
  40149e:	66 90                	xchg   %ax,%ax

004014a0 <__setargv>:
  4014a0:	55                   	push   %ebp
  4014a1:	89 e5                	mov    %esp,%ebp
  4014a3:	57                   	push   %edi
  4014a4:	56                   	push   %esi
  4014a5:	53                   	push   %ebx
  4014a6:	83 ec 4c             	sub    $0x4c,%esp
  4014a9:	f6 05 04 40 40 00 02 	testb  $0x2,0x404004
  4014b0:	0f 84 ea 02 00 00    	je     4017a0 <__setargv+0x300>
  4014b6:	e8 7d 26 00 00       	call   403b38 <_GetCommandLineA@0>
  4014bb:	89 65 c4             	mov    %esp,-0x3c(%ebp)
  4014be:	89 04 24             	mov    %eax,(%esp)
  4014c1:	89 c6                	mov    %eax,%esi
  4014c3:	e8 80 25 00 00       	call   403a48 <_strlen>
  4014c8:	8d 44 00 11          	lea    0x11(%eax,%eax,1),%eax
  4014cc:	c1 e8 04             	shr    $0x4,%eax
  4014cf:	c1 e0 04             	shl    $0x4,%eax
  4014d2:	e8 49 0b 00 00       	call   402020 <___chkstk_ms>
  4014d7:	29 c4                	sub    %eax,%esp
  4014d9:	c7 45 e4 00 00 00 00 	movl   $0x0,-0x1c(%ebp)
  4014e0:	c7 45 d4 00 00 00 00 	movl   $0x0,-0x2c(%ebp)
  4014e7:	8d 44 24 10          	lea    0x10(%esp),%eax
  4014eb:	c7 45 d0 00 00 00 00 	movl   $0x0,-0x30(%ebp)
  4014f2:	89 c2                	mov    %eax,%edx
  4014f4:	89 45 cc             	mov    %eax,-0x34(%ebp)
  4014f7:	a1 04 40 40 00       	mov    0x404004,%eax
  4014fc:	25 00 44 00 00       	and    $0x4400,%eax
  401501:	83 c8 10             	or     $0x10,%eax
  401504:	89 45 c8             	mov    %eax,-0x38(%ebp)
  401507:	31 c0                	xor    %eax,%eax
  401509:	8d b4 26 00 00 00 00 	lea    0x0(%esi,%eiz,1),%esi
  401510:	83 c6 01             	add    $0x1,%esi
  401513:	0f be 4e ff          	movsbl -0x1(%esi),%ecx
  401517:	85 c9                	test   %ecx,%ecx
  401519:	89 cb                	mov    %ecx,%ebx
  40151b:	74 73                	je     401590 <__setargv+0xf0>
  40151d:	80 fb 3f             	cmp    $0x3f,%bl
  401520:	0f 84 8d 01 00 00    	je     4016b3 <__setargv+0x213>
  401526:	0f 8f b4 00 00 00    	jg     4015e0 <__setargv+0x140>
  40152c:	80 fb 27             	cmp    $0x27,%bl
  40152f:	0f 84 b0 01 00 00    	je     4016e5 <__setargv+0x245>
  401535:	80 fb 2a             	cmp    $0x2a,%bl
  401538:	0f 84 75 01 00 00    	je     4016b3 <__setargv+0x213>
  40153e:	80 fb 22             	cmp    $0x22,%bl
  401541:	0f 85 09 01 00 00    	jne    401650 <__setargv+0x1b0>
  401547:	89 c1                	mov    %eax,%ecx
  401549:	d1 f9                	sar    %ecx
  40154b:	0f 84 d9 02 00 00    	je     40182a <__setargv+0x38a>
  401551:	01 d1                	add    %edx,%ecx
  401553:	83 c2 01             	add    $0x1,%edx
  401556:	c6 42 ff 5c          	movb   $0x5c,-0x1(%edx)
  40155a:	39 ca                	cmp    %ecx,%edx
  40155c:	75 f5                	jne    401553 <__setargv+0xb3>
  40155e:	83 7d d4 27          	cmpl   $0x27,-0x2c(%ebp)
  401562:	0f 84 c9 01 00 00    	je     401731 <__setargv+0x291>
  401568:	a8 01                	test   $0x1,%al
  40156a:	0f 85 c1 01 00 00    	jne    401731 <__setargv+0x291>
  401570:	83 c6 01             	add    $0x1,%esi
  401573:	89 ca                	mov    %ecx,%edx
  401575:	83 75 d4 22          	xorl   $0x22,-0x2c(%ebp)
  401579:	0f be 4e ff          	movsbl -0x1(%esi),%ecx
  40157d:	31 c0                	xor    %eax,%eax
  40157f:	c7 45 d0 01 00 00 00 	movl   $0x1,-0x30(%ebp)
  401586:	85 c9                	test   %ecx,%ecx
  401588:	89 cb                	mov    %ecx,%ebx
  40158a:	75 91                	jne    40151d <__setargv+0x7d>
  40158c:	8d 74 26 00          	lea    0x0(%esi,%eiz,1),%esi
  401590:	85 c0                	test   %eax,%eax
  401592:	0f 84 99 02 00 00    	je     401831 <__setargv+0x391>
  401598:	01 d0                	add    %edx,%eax
  40159a:	8d b6 00 00 00 00    	lea    0x0(%esi),%esi
  4015a0:	83 c2 01             	add    $0x1,%edx
  4015a3:	c6 42 ff 5c          	movb   $0x5c,-0x1(%edx)
  4015a7:	39 c2                	cmp    %eax,%edx
  4015a9:	75 f5                	jne    4015a0 <__setargv+0x100>
  4015ab:	39 45 cc             	cmp    %eax,-0x34(%ebp)
  4015ae:	0f 82 be 01 00 00    	jb     401772 <__setargv+0x2d2>
  4015b4:	8b 55 d0             	mov    -0x30(%ebp),%edx
  4015b7:	85 d2                	test   %edx,%edx
  4015b9:	0f 85 b3 01 00 00    	jne    401772 <__setargv+0x2d2>
  4015bf:	8b 45 dc             	mov    -0x24(%ebp),%eax
  4015c2:	a3 04 70 40 00       	mov    %eax,0x407004
  4015c7:	8b 45 e0             	mov    -0x20(%ebp),%eax
  4015ca:	a3 00 70 40 00       	mov    %eax,0x407000
  4015cf:	8b 65 c4             	mov    -0x3c(%ebp),%esp
  4015d2:	8d 65 f4             	lea    -0xc(%ebp),%esp
  4015d5:	5b                   	pop    %ebx
  4015d6:	5e                   	pop    %esi
  4015d7:	5f                   	pop    %edi
  4015d8:	5d                   	pop    %ebp
  4015d9:	c3                   	ret    
  4015da:	8d b6 00 00 00 00    	lea    0x0(%esi),%esi
  4015e0:	80 fb 5c             	cmp    $0x5c,%bl
  4015e3:	0f 84 ea 00 00 00    	je     4016d3 <__setargv+0x233>
  4015e9:	80 fb 7f             	cmp    $0x7f,%bl
  4015ec:	0f 84 c1 00 00 00    	je     4016b3 <__setargv+0x213>
  4015f2:	80 fb 5b             	cmp    $0x5b,%bl
  4015f5:	75 59                	jne    401650 <__setargv+0x1b0>
  4015f7:	f6 05 04 40 40 00 20 	testb  $0x20,0x404004
  4015fe:	0f 85 af 00 00 00    	jne    4016b3 <__setargv+0x213>
  401604:	85 c0                	test   %eax,%eax
  401606:	8d 78 ff             	lea    -0x1(%eax),%edi
  401609:	b9 01 00 00 00       	mov    $0x1,%ecx
  40160e:	74 32                	je     401642 <__setargv+0x1a2>
  401610:	8d 7c 3a 01          	lea    0x1(%edx,%edi,1),%edi
  401614:	89 d0                	mov    %edx,%eax
  401616:	8d 76 00             	lea    0x0(%esi),%esi
  401619:	8d bc 27 00 00 00 00 	lea    0x0(%edi,%eiz,1),%edi
  401620:	83 c0 01             	add    $0x1,%eax
  401623:	c6 40 ff 5c          	movb   $0x5c,-0x1(%eax)
  401627:	39 f8                	cmp    %edi,%eax
  401629:	75 f5                	jne    401620 <__setargv+0x180>
  40162b:	84 c9                	test   %cl,%cl
  40162d:	75 11                	jne    401640 <__setargv+0x1a0>
  40162f:	8d 50 01             	lea    0x1(%eax),%edx
  401632:	88 18                	mov    %bl,(%eax)
  401634:	31 c0                	xor    %eax,%eax
  401636:	e9 d5 fe ff ff       	jmp    401510 <__setargv+0x70>
  40163b:	90                   	nop
  40163c:	8d 74 26 00          	lea    0x0(%esi,%eiz,1),%esi
  401640:	89 c2                	mov    %eax,%edx
  401642:	8d 42 01             	lea    0x1(%edx),%eax
  401645:	c6 02 7f             	movb   $0x7f,(%edx)
  401648:	eb e5                	jmp    40162f <__setargv+0x18f>
  40164a:	8d b6 00 00 00 00    	lea    0x0(%esi),%esi
  401650:	85 c0                	test   %eax,%eax
  401652:	8d 3c 02             	lea    (%edx,%eax,1),%edi
  401655:	0f 84 c8 01 00 00    	je     401823 <__setargv+0x383>
  40165b:	90                   	nop
  40165c:	8d 74 26 00          	lea    0x0(%esi,%eiz,1),%esi
  401660:	83 c2 01             	add    $0x1,%edx
  401663:	c6 42 ff 5c          	movb   $0x5c,-0x1(%edx)
  401667:	39 fa                	cmp    %edi,%edx
  401669:	75 f5                	jne    401660 <__setargv+0x1c0>
  40166b:	8b 45 d4             	mov    -0x2c(%ebp),%eax
  40166e:	85 c0                	test   %eax,%eax
  401670:	75 35                	jne    4016a7 <__setargv+0x207>
  401672:	a1 80 81 40 00       	mov    0x408180,%eax
  401677:	83 38 01             	cmpl   $0x1,(%eax)
  40167a:	0f 84 c5 00 00 00    	je     401745 <__setargv+0x2a5>
  401680:	c7 44 24 04 40 00 00 	movl   $0x40,0x4(%esp)
  401687:	00 
  401688:	89 0c 24             	mov    %ecx,(%esp)
  40168b:	89 4d c0             	mov    %ecx,-0x40(%ebp)
  40168e:	e8 1d 24 00 00       	call   403ab0 <__isctype>
  401693:	85 c0                	test   %eax,%eax
  401695:	0f 85 bb 00 00 00    	jne    401756 <__setargv+0x2b6>
  40169b:	8b 4d c0             	mov    -0x40(%ebp),%ecx
  40169e:	83 f9 09             	cmp    $0x9,%ecx
  4016a1:	0f 84 af 00 00 00    	je     401756 <__setargv+0x2b6>
  4016a7:	8d 57 01             	lea    0x1(%edi),%edx
  4016aa:	88 1f                	mov    %bl,(%edi)
  4016ac:	31 c0                	xor    %eax,%eax
  4016ae:	e9 5d fe ff ff       	jmp    401510 <__setargv+0x70>
  4016b3:	85 c0                	test   %eax,%eax
  4016b5:	8d 78 ff             	lea    -0x1(%eax),%edi
  4016b8:	0f 84 4e 01 00 00    	je     40180c <__setargv+0x36c>
  4016be:	8b 45 d4             	mov    -0x2c(%ebp),%eax
  4016c1:	83 f9 7f             	cmp    $0x7f,%ecx
  4016c4:	0f 94 c1             	sete   %cl
  4016c7:	85 c0                	test   %eax,%eax
  4016c9:	0f 95 c0             	setne  %al
  4016cc:	09 c1                	or     %eax,%ecx
  4016ce:	e9 3d ff ff ff       	jmp    401610 <__setargv+0x170>
  4016d3:	83 7d d4 27          	cmpl   $0x27,-0x2c(%ebp)
  4016d7:	0f 84 e4 00 00 00    	je     4017c1 <__setargv+0x321>
  4016dd:	83 c0 01             	add    $0x1,%eax
  4016e0:	e9 2b fe ff ff       	jmp    401510 <__setargv+0x70>
  4016e5:	f6 05 04 40 40 00 10 	testb  $0x10,0x404004
  4016ec:	0f 84 5e ff ff ff    	je     401650 <__setargv+0x1b0>
  4016f2:	89 c1                	mov    %eax,%ecx
  4016f4:	d1 f9                	sar    %ecx
  4016f6:	0f 84 3c 01 00 00    	je     401838 <__setargv+0x398>
  4016fc:	01 d1                	add    %edx,%ecx
  4016fe:	66 90                	xchg   %ax,%ax
  401700:	83 c2 01             	add    $0x1,%edx
  401703:	c6 42 ff 5c          	movb   $0x5c,-0x1(%edx)
  401707:	39 ca                	cmp    %ecx,%edx
  401709:	75 f5                	jne    401700 <__setargv+0x260>
  40170b:	83 7d d4 22          	cmpl   $0x22,-0x2c(%ebp)
  40170f:	0f 84 98 00 00 00    	je     4017ad <__setargv+0x30d>
  401715:	a8 01                	test   $0x1,%al
  401717:	0f 85 90 00 00 00    	jne    4017ad <__setargv+0x30d>
  40171d:	83 75 d4 27          	xorl   $0x27,-0x2c(%ebp)
  401721:	89 ca                	mov    %ecx,%edx
  401723:	31 c0                	xor    %eax,%eax
  401725:	c7 45 d0 01 00 00 00 	movl   $0x1,-0x30(%ebp)
  40172c:	e9 df fd ff ff       	jmp    401510 <__setargv+0x70>
  401731:	8d 51 01             	lea    0x1(%ecx),%edx
  401734:	c6 01 22             	movb   $0x22,(%ecx)
  401737:	31 c0                	xor    %eax,%eax
  401739:	c7 45 d0 01 00 00 00 	movl   $0x1,-0x30(%ebp)
  401740:	e9 cb fd ff ff       	jmp    401510 <__setargv+0x70>
  401745:	a1 ac 81 40 00       	mov    0x4081ac,%eax
  40174a:	8b 00                	mov    (%eax),%eax
  40174c:	f6 04 48 40          	testb  $0x40,(%eax,%ecx,2)
  401750:	0f 84 48 ff ff ff    	je     40169e <__setargv+0x1fe>
  401756:	39 7d cc             	cmp    %edi,-0x34(%ebp)
  401759:	72 75                	jb     4017d0 <__setargv+0x330>
  40175b:	8b 45 d0             	mov    -0x30(%ebp),%eax
  40175e:	85 c0                	test   %eax,%eax
  401760:	75 6e                	jne    4017d0 <__setargv+0x330>
  401762:	89 fa                	mov    %edi,%edx
  401764:	31 c0                	xor    %eax,%eax
  401766:	c7 45 d0 00 00 00 00 	movl   $0x0,-0x30(%ebp)
  40176d:	e9 9e fd ff ff       	jmp    401510 <__setargv+0x70>
  401772:	c6 00 00             	movb   $0x0,(%eax)
  401775:	8d 45 d8             	lea    -0x28(%ebp),%eax
  401778:	c7 44 24 08 00 00 00 	movl   $0x0,0x8(%esp)
  40177f:	00 
  401780:	89 44 24 0c          	mov    %eax,0xc(%esp)
  401784:	8b 45 c8             	mov    -0x38(%ebp),%eax
  401787:	89 44 24 04          	mov    %eax,0x4(%esp)
  40178b:	8b 45 cc             	mov    -0x34(%ebp),%eax
  40178e:	89 04 24             	mov    %eax,(%esp)
  401791:	e8 5a 18 00 00       	call   402ff0 <___mingw_glob>
  401796:	e9 24 fe ff ff       	jmp    4015bf <__setargv+0x11f>
  40179b:	90                   	nop
  40179c:	8d 74 26 00          	lea    0x0(%esi,%eiz,1),%esi
  4017a0:	e8 fb fa ff ff       	call   4012a0 <__mingw32_init_mainargs>
  4017a5:	8d 65 f4             	lea    -0xc(%ebp),%esp
  4017a8:	5b                   	pop    %ebx
  4017a9:	5e                   	pop    %esi
  4017aa:	5f                   	pop    %edi
  4017ab:	5d                   	pop    %ebp
  4017ac:	c3                   	ret    
  4017ad:	8d 51 01             	lea    0x1(%ecx),%edx
  4017b0:	c6 01 27             	movb   $0x27,(%ecx)
  4017b3:	31 c0                	xor    %eax,%eax
  4017b5:	c7 45 d0 01 00 00 00 	movl   $0x1,-0x30(%ebp)
  4017bc:	e9 4f fd ff ff       	jmp    401510 <__setargv+0x70>
  4017c1:	c6 02 5c             	movb   $0x5c,(%edx)
  4017c4:	83 c2 01             	add    $0x1,%edx
  4017c7:	e9 44 fd ff ff       	jmp    401510 <__setargv+0x70>
  4017cc:	8d 74 26 00          	lea    0x0(%esi,%eiz,1),%esi
  4017d0:	8d 45 d8             	lea    -0x28(%ebp),%eax
  4017d3:	c6 07 00             	movb   $0x0,(%edi)
  4017d6:	c7 44 24 08 00 00 00 	movl   $0x0,0x8(%esp)
  4017dd:	00 
  4017de:	89 44 24 0c          	mov    %eax,0xc(%esp)
  4017e2:	8b 5d c8             	mov    -0x38(%ebp),%ebx
  4017e5:	89 5c 24 04          	mov    %ebx,0x4(%esp)
  4017e9:	8b 7d cc             	mov    -0x34(%ebp),%edi
  4017ec:	89 3c 24             	mov    %edi,(%esp)
  4017ef:	e8 fc 17 00 00       	call   402ff0 <___mingw_glob>
  4017f4:	89 d8                	mov    %ebx,%eax
  4017f6:	89 fa                	mov    %edi,%edx
  4017f8:	c7 45 d0 00 00 00 00 	movl   $0x0,-0x30(%ebp)
  4017ff:	83 c8 01             	or     $0x1,%eax
  401802:	89 45 c8             	mov    %eax,-0x38(%ebp)
  401805:	31 c0                	xor    %eax,%eax
  401807:	e9 04 fd ff ff       	jmp    401510 <__setargv+0x70>
  40180c:	8b 45 d4             	mov    -0x2c(%ebp),%eax
  40180f:	85 c0                	test   %eax,%eax
  401811:	0f 95 c0             	setne  %al
  401814:	83 f9 7f             	cmp    $0x7f,%ecx
  401817:	0f 94 c1             	sete   %cl
  40181a:	09 c1                	or     %eax,%ecx
  40181c:	89 d0                	mov    %edx,%eax
  40181e:	e9 08 fe ff ff       	jmp    40162b <__setargv+0x18b>
  401823:	89 d7                	mov    %edx,%edi
  401825:	e9 41 fe ff ff       	jmp    40166b <__setargv+0x1cb>
  40182a:	89 d1                	mov    %edx,%ecx
  40182c:	e9 2d fd ff ff       	jmp    40155e <__setargv+0xbe>
  401831:	89 d0                	mov    %edx,%eax
  401833:	e9 73 fd ff ff       	jmp    4015ab <__setargv+0x10b>
  401838:	89 d1                	mov    %edx,%ecx
  40183a:	e9 cc fe ff ff       	jmp    40170b <__setargv+0x26b>
  40183f:	90                   	nop

00401840 <___cpu_features_init>:
  401840:	9c                   	pushf  
  401841:	9c                   	pushf  
  401842:	58                   	pop    %eax
  401843:	89 c2                	mov    %eax,%edx
  401845:	35 00 00 20 00       	xor    $0x200000,%eax
  40184a:	50                   	push   %eax
  40184b:	9d                   	popf   
  40184c:	9c                   	pushf  
  40184d:	58                   	pop    %eax
  40184e:	9d                   	popf   
  40184f:	31 d0                	xor    %edx,%eax
  401851:	a9 00 00 20 00       	test   $0x200000,%eax
  401856:	0f 84 e9 00 00 00    	je     401945 <___cpu_features_init+0x105>
  40185c:	53                   	push   %ebx
  40185d:	31 c0                	xor    %eax,%eax
  40185f:	0f a2                	cpuid  
  401861:	85 c0                	test   %eax,%eax
  401863:	0f 84 db 00 00 00    	je     401944 <___cpu_features_init+0x104>
  401869:	b8 01 00 00 00       	mov    $0x1,%eax
  40186e:	0f a2                	cpuid  
  401870:	31 c0                	xor    %eax,%eax
  401872:	f6 c6 01             	test   $0x1,%dh
  401875:	74 03                	je     40187a <___cpu_features_init+0x3a>
  401877:	83 c8 01             	or     $0x1,%eax
  40187a:	f6 c5 20             	test   $0x20,%ch
  40187d:	74 05                	je     401884 <___cpu_features_init+0x44>
  40187f:	0d 80 00 00 00       	or     $0x80,%eax
  401884:	f6 c6 80             	test   $0x80,%dh
  401887:	74 03                	je     40188c <___cpu_features_init+0x4c>
  401889:	83 c8 02             	or     $0x2,%eax
  40188c:	f7 c2 00 00 80 00    	test   $0x800000,%edx
  401892:	74 03                	je     401897 <___cpu_features_init+0x57>
  401894:	83 c8 04             	or     $0x4,%eax
  401897:	f7 c2 00 00 00 01    	test   $0x1000000,%edx
  40189d:	74 6d                	je     40190c <___cpu_features_init+0xcc>
  40189f:	83 c8 08             	or     $0x8,%eax
  4018a2:	55                   	push   %ebp
  4018a3:	89 e5                	mov    %esp,%ebp
  4018a5:	81 ec 00 02 00 00    	sub    $0x200,%esp
  4018ab:	83 e4 f0             	and    $0xfffffff0,%esp
  4018ae:	0f ae 04 24          	fxsave (%esp)
  4018b2:	8b 9c 24 c8 00 00 00 	mov    0xc8(%esp),%ebx
  4018b9:	81 b4 24 c8 00 00 00 	xorl   $0x13c0de,0xc8(%esp)
  4018c0:	de c0 13 00 
  4018c4:	0f ae 0c 24          	fxrstor (%esp)
  4018c8:	89 9c 24 c8 00 00 00 	mov    %ebx,0xc8(%esp)
  4018cf:	0f ae 04 24          	fxsave (%esp)
  4018d3:	87 9c 24 c8 00 00 00 	xchg   %ebx,0xc8(%esp)
  4018da:	0f ae 0c 24          	fxrstor (%esp)
  4018de:	33 9c 24 c8 00 00 00 	xor    0xc8(%esp),%ebx
  4018e5:	c9                   	leave  
  4018e6:	81 fb de c0 13 00    	cmp    $0x13c0de,%ebx
  4018ec:	75 1e                	jne    40190c <___cpu_features_init+0xcc>
  4018ee:	f7 c2 00 00 00 02    	test   $0x2000000,%edx
  4018f4:	74 03                	je     4018f9 <___cpu_features_init+0xb9>
  4018f6:	83 c8 10             	or     $0x10,%eax
  4018f9:	f7 c2 00 00 00 04    	test   $0x4000000,%edx
  4018ff:	74 03                	je     401904 <___cpu_features_init+0xc4>
  401901:	83 c8 20             	or     $0x20,%eax
  401904:	f6 c1 01             	test   $0x1,%cl
  401907:	74 03                	je     40190c <___cpu_features_init+0xcc>
  401909:	83 c8 40             	or     $0x40,%eax
  40190c:	a3 24 70 40 00       	mov    %eax,0x407024
  401911:	b8 00 00 00 80       	mov    $0x80000000,%eax
  401916:	0f a2                	cpuid  
  401918:	3d 00 00 00 80       	cmp    $0x80000000,%eax
  40191d:	76 25                	jbe    401944 <___cpu_features_init+0x104>
  40191f:	b8 01 00 00 80       	mov    $0x80000001,%eax
  401924:	0f a2                	cpuid  
  401926:	31 c0                	xor    %eax,%eax
  401928:	85 d2                	test   %edx,%edx
  40192a:	79 05                	jns    401931 <___cpu_features_init+0xf1>
  40192c:	b8 00 01 00 00       	mov    $0x100,%eax
  401931:	f7 c2 00 00 00 40    	test   $0x40000000,%edx
  401937:	74 05                	je     40193e <___cpu_features_init+0xfe>
  401939:	0d 00 02 00 00       	or     $0x200,%eax
  40193e:	09 05 24 70 40 00    	or     %eax,0x407024
  401944:	5b                   	pop    %ebx
  401945:	f3 c3                	repz ret 
  401947:	90                   	nop
  401948:	90                   	nop
  401949:	90                   	nop
  40194a:	90                   	nop
  40194b:	90                   	nop
  40194c:	90                   	nop
  40194d:	90                   	nop
  40194e:	90                   	nop
  40194f:	90                   	nop

00401950 <___do_global_dtors>:
  401950:	a1 10 40 40 00       	mov    0x404010,%eax
  401955:	8b 00                	mov    (%eax),%eax
  401957:	85 c0                	test   %eax,%eax
  401959:	74 1f                	je     40197a <___do_global_dtors+0x2a>
  40195b:	83 ec 0c             	sub    $0xc,%esp
  40195e:	66 90                	xchg   %ax,%ax
  401960:	ff d0                	call   *%eax
  401962:	a1 10 40 40 00       	mov    0x404010,%eax
  401967:	8d 50 04             	lea    0x4(%eax),%edx
  40196a:	8b 40 04             	mov    0x4(%eax),%eax
  40196d:	89 15 10 40 40 00    	mov    %edx,0x404010
  401973:	85 c0                	test   %eax,%eax
  401975:	75 e9                	jne    401960 <___do_global_dtors+0x10>
  401977:	83 c4 0c             	add    $0xc,%esp
  40197a:	f3 c3                	repz ret 
  40197c:	8d 74 26 00          	lea    0x0(%esi,%eiz,1),%esi

00401980 <___do_global_ctors>:
  401980:	53                   	push   %ebx
  401981:	83 ec 18             	sub    $0x18,%esp
  401984:	8b 1d a0 3b 40 00    	mov    0x403ba0,%ebx
  40198a:	83 fb ff             	cmp    $0xffffffff,%ebx
  40198d:	74 21                	je     4019b0 <___do_global_ctors+0x30>
  40198f:	85 db                	test   %ebx,%ebx
  401991:	74 0c                	je     40199f <___do_global_ctors+0x1f>
  401993:	ff 14 9d a0 3b 40 00 	call   *0x403ba0(,%ebx,4)
  40199a:	83 eb 01             	sub    $0x1,%ebx
  40199d:	75 f4                	jne    401993 <___do_global_ctors+0x13>
  40199f:	c7 04 24 50 19 40 00 	movl   $0x401950,(%esp)
  4019a6:	e8 75 f9 ff ff       	call   401320 <_atexit>
  4019ab:	83 c4 18             	add    $0x18,%esp
  4019ae:	5b                   	pop    %ebx
  4019af:	c3                   	ret    
  4019b0:	31 db                	xor    %ebx,%ebx
  4019b2:	eb 02                	jmp    4019b6 <___do_global_ctors+0x36>
  4019b4:	89 c3                	mov    %eax,%ebx
  4019b6:	8d 43 01             	lea    0x1(%ebx),%eax
  4019b9:	8b 14 85 a0 3b 40 00 	mov    0x403ba0(,%eax,4),%edx
  4019c0:	85 d2                	test   %edx,%edx
  4019c2:	75 f0                	jne    4019b4 <___do_global_ctors+0x34>
  4019c4:	eb c9                	jmp    40198f <___do_global_ctors+0xf>
  4019c6:	8d 76 00             	lea    0x0(%esi),%esi
  4019c9:	8d bc 27 00 00 00 00 	lea    0x0(%edi,%eiz,1),%edi

004019d0 <___main>:
  4019d0:	a1 28 70 40 00       	mov    0x407028,%eax
  4019d5:	85 c0                	test   %eax,%eax
  4019d7:	74 07                	je     4019e0 <___main+0x10>
  4019d9:	f3 c3                	repz ret 
  4019db:	90                   	nop
  4019dc:	8d 74 26 00          	lea    0x0(%esi,%eiz,1),%esi
  4019e0:	c7 05 28 70 40 00 01 	movl   $0x1,0x407028
  4019e7:	00 00 00 
  4019ea:	eb 94                	jmp    401980 <___do_global_ctors>
  4019ec:	90                   	nop
  4019ed:	90                   	nop
  4019ee:	90                   	nop
  4019ef:	90                   	nop

004019f0 <.text>:
  4019f0:	83 ec 1c             	sub    $0x1c,%esp
  4019f3:	8b 44 24 24          	mov    0x24(%esp),%eax
  4019f7:	83 f8 03             	cmp    $0x3,%eax
  4019fa:	74 14                	je     401a10 <.text+0x20>
  4019fc:	85 c0                	test   %eax,%eax
  4019fe:	74 10                	je     401a10 <.text+0x20>
  401a00:	b8 01 00 00 00       	mov    $0x1,%eax
  401a05:	83 c4 1c             	add    $0x1c,%esp
  401a08:	c2 0c 00             	ret    $0xc
  401a0b:	90                   	nop
  401a0c:	8d 74 26 00          	lea    0x0(%esi,%eiz,1),%esi
  401a10:	8b 54 24 28          	mov    0x28(%esp),%edx
  401a14:	89 44 24 04          	mov    %eax,0x4(%esp)
  401a18:	8b 44 24 20          	mov    0x20(%esp),%eax
  401a1c:	89 54 24 08          	mov    %edx,0x8(%esp)
  401a20:	89 04 24             	mov    %eax,(%esp)
  401a23:	e8 48 02 00 00       	call   401c70 <___mingw_TLScallback>
  401a28:	b8 01 00 00 00       	mov    $0x1,%eax
  401a2d:	83 c4 1c             	add    $0x1c,%esp
  401a30:	c2 0c 00             	ret    $0xc
  401a33:	8d b6 00 00 00 00    	lea    0x0(%esi),%esi
  401a39:	8d bc 27 00 00 00 00 	lea    0x0(%edi,%eiz,1),%edi

00401a40 <___dyn_tls_init@12>:
  401a40:	56                   	push   %esi
  401a41:	53                   	push   %ebx
  401a42:	83 ec 14             	sub    $0x14,%esp
  401a45:	83 3d 64 70 40 00 02 	cmpl   $0x2,0x407064
  401a4c:	8b 44 24 24          	mov    0x24(%esp),%eax
  401a50:	74 0a                	je     401a5c <___dyn_tls_init@12+0x1c>
  401a52:	c7 05 64 70 40 00 02 	movl   $0x2,0x407064
  401a59:	00 00 00 
  401a5c:	83 f8 02             	cmp    $0x2,%eax
  401a5f:	74 12                	je     401a73 <___dyn_tls_init@12+0x33>
  401a61:	83 f8 01             	cmp    $0x1,%eax
  401a64:	74 3f                	je     401aa5 <___dyn_tls_init@12+0x65>
  401a66:	83 c4 14             	add    $0x14,%esp
  401a69:	b8 01 00 00 00       	mov    $0x1,%eax
  401a6e:	5b                   	pop    %ebx
  401a6f:	5e                   	pop    %esi
  401a70:	c2 0c 00             	ret    $0xc
  401a73:	be 14 90 40 00       	mov    $0x409014,%esi
  401a78:	81 ee 14 90 40 00    	sub    $0x409014,%esi
  401a7e:	83 fe 03             	cmp    $0x3,%esi
  401a81:	7e e3                	jle    401a66 <___dyn_tls_init@12+0x26>
  401a83:	31 db                	xor    %ebx,%ebx
  401a85:	8b 83 14 90 40 00    	mov    0x409014(%ebx),%eax
  401a8b:	85 c0                	test   %eax,%eax
  401a8d:	74 02                	je     401a91 <___dyn_tls_init@12+0x51>
  401a8f:	ff d0                	call   *%eax
  401a91:	83 c3 04             	add    $0x4,%ebx
  401a94:	39 de                	cmp    %ebx,%esi
  401a96:	75 ed                	jne    401a85 <___dyn_tls_init@12+0x45>
  401a98:	83 c4 14             	add    $0x14,%esp
  401a9b:	b8 01 00 00 00       	mov    $0x1,%eax
  401aa0:	5b                   	pop    %ebx
  401aa1:	5e                   	pop    %esi
  401aa2:	c2 0c 00             	ret    $0xc
  401aa5:	8b 44 24 28          	mov    0x28(%esp),%eax
  401aa9:	c7 44 24 04 01 00 00 	movl   $0x1,0x4(%esp)
  401ab0:	00 
  401ab1:	89 44 24 08          	mov    %eax,0x8(%esp)
  401ab5:	8b 44 24 20          	mov    0x20(%esp),%eax
  401ab9:	89 04 24             	mov    %eax,(%esp)
  401abc:	e8 af 01 00 00       	call   401c70 <___mingw_TLScallback>
  401ac1:	eb a3                	jmp    401a66 <___dyn_tls_init@12+0x26>
  401ac3:	8d b6 00 00 00 00    	lea    0x0(%esi),%esi
  401ac9:	8d bc 27 00 00 00 00 	lea    0x0(%edi,%eiz,1),%edi

00401ad0 <___tlregdtor>:
  401ad0:	31 c0                	xor    %eax,%eax
  401ad2:	c3                   	ret    
  401ad3:	90                   	nop
  401ad4:	90                   	nop
  401ad5:	90                   	nop
  401ad6:	90                   	nop
  401ad7:	90                   	nop
  401ad8:	90                   	nop
  401ad9:	90                   	nop
  401ada:	90                   	nop
  401adb:	90                   	nop
  401adc:	90                   	nop
  401add:	90                   	nop
  401ade:	90                   	nop
  401adf:	90                   	nop

00401ae0 <.text>:
  401ae0:	56                   	push   %esi
  401ae1:	53                   	push   %ebx
  401ae2:	83 ec 14             	sub    $0x14,%esp
  401ae5:	c7 04 24 44 70 40 00 	movl   $0x407044,(%esp)
  401aec:	e8 77 20 00 00       	call   403b68 <_EnterCriticalSection@4>
  401af1:	8b 1d 3c 70 40 00    	mov    0x40703c,%ebx
  401af7:	83 ec 04             	sub    $0x4,%esp
  401afa:	85 db                	test   %ebx,%ebx
  401afc:	74 2d                	je     401b2b <.text+0x4b>
  401afe:	66 90                	xchg   %ax,%ax
  401b00:	8b 03                	mov    (%ebx),%eax
  401b02:	89 04 24             	mov    %eax,(%esp)
  401b05:	e8 ee 1f 00 00       	call   403af8 <_TlsGetValue@4>
  401b0a:	83 ec 04             	sub    $0x4,%esp
  401b0d:	89 c6                	mov    %eax,%esi
  401b0f:	e8 1c 20 00 00       	call   403b30 <_GetLastError@0>
  401b14:	85 c0                	test   %eax,%eax
  401b16:	75 0c                	jne    401b24 <.text+0x44>
  401b18:	85 f6                	test   %esi,%esi
  401b1a:	74 08                	je     401b24 <.text+0x44>
  401b1c:	8b 43 04             	mov    0x4(%ebx),%eax
  401b1f:	89 34 24             	mov    %esi,(%esp)
  401b22:	ff d0                	call   *%eax
  401b24:	8b 5b 08             	mov    0x8(%ebx),%ebx
  401b27:	85 db                	test   %ebx,%ebx
  401b29:	75 d5                	jne    401b00 <.text+0x20>
  401b2b:	c7 04 24 44 70 40 00 	movl   $0x407044,(%esp)
  401b32:	e8 d9 1f 00 00       	call   403b10 <_LeaveCriticalSection@4>
  401b37:	83 ec 04             	sub    $0x4,%esp
  401b3a:	83 c4 14             	add    $0x14,%esp
  401b3d:	5b                   	pop    %ebx
  401b3e:	5e                   	pop    %esi
  401b3f:	c3                   	ret    

00401b40 <____w64_mingwthr_add_key_dtor>:
  401b40:	56                   	push   %esi
  401b41:	53                   	push   %ebx
  401b42:	31 f6                	xor    %esi,%esi
  401b44:	83 ec 14             	sub    $0x14,%esp
  401b47:	a1 40 70 40 00       	mov    0x407040,%eax
  401b4c:	85 c0                	test   %eax,%eax
  401b4e:	75 10                	jne    401b60 <____w64_mingwthr_add_key_dtor+0x20>
  401b50:	83 c4 14             	add    $0x14,%esp
  401b53:	89 f0                	mov    %esi,%eax
  401b55:	5b                   	pop    %ebx
  401b56:	5e                   	pop    %esi
  401b57:	c3                   	ret    
  401b58:	90                   	nop
  401b59:	8d b4 26 00 00 00 00 	lea    0x0(%esi,%eiz,1),%esi
  401b60:	c7 44 24 04 0c 00 00 	movl   $0xc,0x4(%esp)
  401b67:	00 
  401b68:	c7 04 24 01 00 00 00 	movl   $0x1,(%esp)
  401b6f:	e8 24 1f 00 00       	call   403a98 <_calloc>
  401b74:	85 c0                	test   %eax,%eax
  401b76:	89 c3                	mov    %eax,%ebx
  401b78:	74 41                	je     401bbb <____w64_mingwthr_add_key_dtor+0x7b>
  401b7a:	8b 44 24 20          	mov    0x20(%esp),%eax
  401b7e:	c7 04 24 44 70 40 00 	movl   $0x407044,(%esp)
  401b85:	89 03                	mov    %eax,(%ebx)
  401b87:	8b 44 24 24          	mov    0x24(%esp),%eax
  401b8b:	89 43 04             	mov    %eax,0x4(%ebx)
  401b8e:	e8 d5 1f 00 00       	call   403b68 <_EnterCriticalSection@4>
  401b93:	a1 3c 70 40 00       	mov    0x40703c,%eax
  401b98:	83 ec 04             	sub    $0x4,%esp
  401b9b:	89 1d 3c 70 40 00    	mov    %ebx,0x40703c
  401ba1:	c7 04 24 44 70 40 00 	movl   $0x407044,(%esp)
  401ba8:	89 43 08             	mov    %eax,0x8(%ebx)
  401bab:	e8 60 1f 00 00       	call   403b10 <_LeaveCriticalSection@4>
  401bb0:	83 ec 04             	sub    $0x4,%esp
  401bb3:	89 f0                	mov    %esi,%eax
  401bb5:	83 c4 14             	add    $0x14,%esp
  401bb8:	5b                   	pop    %ebx
  401bb9:	5e                   	pop    %esi
  401bba:	c3                   	ret    
  401bbb:	be ff ff ff ff       	mov    $0xffffffff,%esi
  401bc0:	eb 8e                	jmp    401b50 <____w64_mingwthr_add_key_dtor+0x10>
  401bc2:	8d b4 26 00 00 00 00 	lea    0x0(%esi,%eiz,1),%esi
  401bc9:	8d bc 27 00 00 00 00 	lea    0x0(%edi,%eiz,1),%edi

00401bd0 <____w64_mingwthr_remove_key_dtor>:
  401bd0:	53                   	push   %ebx
  401bd1:	83 ec 18             	sub    $0x18,%esp
  401bd4:	a1 40 70 40 00       	mov    0x407040,%eax
  401bd9:	8b 5c 24 20          	mov    0x20(%esp),%ebx
  401bdd:	85 c0                	test   %eax,%eax
  401bdf:	75 0f                	jne    401bf0 <____w64_mingwthr_remove_key_dtor+0x20>
  401be1:	83 c4 18             	add    $0x18,%esp
  401be4:	31 c0                	xor    %eax,%eax
  401be6:	5b                   	pop    %ebx
  401be7:	c3                   	ret    
  401be8:	90                   	nop
  401be9:	8d b4 26 00 00 00 00 	lea    0x0(%esi,%eiz,1),%esi
  401bf0:	c7 04 24 44 70 40 00 	movl   $0x407044,(%esp)
  401bf7:	e8 6c 1f 00 00       	call   403b68 <_EnterCriticalSection@4>
  401bfc:	8b 15 3c 70 40 00    	mov    0x40703c,%edx
  401c02:	83 ec 04             	sub    $0x4,%esp
  401c05:	85 d2                	test   %edx,%edx
  401c07:	74 17                	je     401c20 <____w64_mingwthr_remove_key_dtor+0x50>
  401c09:	8b 02                	mov    (%edx),%eax
  401c0b:	39 c3                	cmp    %eax,%ebx
  401c0d:	75 0a                	jne    401c19 <____w64_mingwthr_remove_key_dtor+0x49>
  401c0f:	eb 4e                	jmp    401c5f <____w64_mingwthr_remove_key_dtor+0x8f>
  401c11:	8b 08                	mov    (%eax),%ecx
  401c13:	39 d9                	cmp    %ebx,%ecx
  401c15:	74 29                	je     401c40 <____w64_mingwthr_remove_key_dtor+0x70>
  401c17:	89 c2                	mov    %eax,%edx
  401c19:	8b 42 08             	mov    0x8(%edx),%eax
  401c1c:	85 c0                	test   %eax,%eax
  401c1e:	75 f1                	jne    401c11 <____w64_mingwthr_remove_key_dtor+0x41>
  401c20:	c7 04 24 44 70 40 00 	movl   $0x407044,(%esp)
  401c27:	e8 e4 1e 00 00       	call   403b10 <_LeaveCriticalSection@4>
  401c2c:	83 ec 04             	sub    $0x4,%esp
  401c2f:	83 c4 18             	add    $0x18,%esp
  401c32:	31 c0                	xor    %eax,%eax
  401c34:	5b                   	pop    %ebx
  401c35:	c3                   	ret    
  401c36:	8d 76 00             	lea    0x0(%esi),%esi
  401c39:	8d bc 27 00 00 00 00 	lea    0x0(%edi,%eiz,1),%edi
  401c40:	8b 48 08             	mov    0x8(%eax),%ecx
  401c43:	89 4a 08             	mov    %ecx,0x8(%edx)
  401c46:	89 04 24             	mov    %eax,(%esp)
  401c49:	e8 42 1e 00 00       	call   403a90 <_free>
  401c4e:	c7 04 24 44 70 40 00 	movl   $0x407044,(%esp)
  401c55:	e8 b6 1e 00 00       	call   403b10 <_LeaveCriticalSection@4>
  401c5a:	83 ec 04             	sub    $0x4,%esp
  401c5d:	eb d0                	jmp    401c2f <____w64_mingwthr_remove_key_dtor+0x5f>
  401c5f:	8b 42 08             	mov    0x8(%edx),%eax
  401c62:	a3 3c 70 40 00       	mov    %eax,0x40703c
  401c67:	89 d0                	mov    %edx,%eax
  401c69:	eb db                	jmp    401c46 <____w64_mingwthr_remove_key_dtor+0x76>
  401c6b:	90                   	nop
  401c6c:	8d 74 26 00          	lea    0x0(%esi,%eiz,1),%esi

00401c70 <___mingw_TLScallback>:
  401c70:	83 ec 1c             	sub    $0x1c,%esp
  401c73:	8b 44 24 24          	mov    0x24(%esp),%eax
  401c77:	83 f8 01             	cmp    $0x1,%eax
  401c7a:	74 47                	je     401cc3 <___mingw_TLScallback+0x53>
  401c7c:	72 17                	jb     401c95 <___mingw_TLScallback+0x25>
  401c7e:	83 f8 03             	cmp    $0x3,%eax
  401c81:	75 09                	jne    401c8c <___mingw_TLScallback+0x1c>
  401c83:	a1 40 70 40 00       	mov    0x407040,%eax
  401c88:	85 c0                	test   %eax,%eax
  401c8a:	75 65                	jne    401cf1 <___mingw_TLScallback+0x81>
  401c8c:	b8 01 00 00 00       	mov    $0x1,%eax
  401c91:	83 c4 1c             	add    $0x1c,%esp
  401c94:	c3                   	ret    
  401c95:	a1 40 70 40 00       	mov    0x407040,%eax
  401c9a:	85 c0                	test   %eax,%eax
  401c9c:	75 62                	jne    401d00 <___mingw_TLScallback+0x90>
  401c9e:	a1 40 70 40 00       	mov    0x407040,%eax
  401ca3:	83 f8 01             	cmp    $0x1,%eax
  401ca6:	75 e4                	jne    401c8c <___mingw_TLScallback+0x1c>
  401ca8:	c7 04 24 44 70 40 00 	movl   $0x407044,(%esp)
  401caf:	c7 05 40 70 40 00 00 	movl   $0x0,0x407040
  401cb6:	00 00 00 
  401cb9:	e8 b2 1e 00 00       	call   403b70 <_DeleteCriticalSection@4>
  401cbe:	83 ec 04             	sub    $0x4,%esp
  401cc1:	eb c9                	jmp    401c8c <___mingw_TLScallback+0x1c>
  401cc3:	a1 40 70 40 00       	mov    0x407040,%eax
  401cc8:	85 c0                	test   %eax,%eax
  401cca:	74 14                	je     401ce0 <___mingw_TLScallback+0x70>
  401ccc:	c7 05 40 70 40 00 01 	movl   $0x1,0x407040
  401cd3:	00 00 00 
  401cd6:	b8 01 00 00 00       	mov    $0x1,%eax
  401cdb:	83 c4 1c             	add    $0x1c,%esp
  401cde:	c3                   	ret    
  401cdf:	90                   	nop
  401ce0:	c7 04 24 44 70 40 00 	movl   $0x407044,(%esp)
  401ce7:	e8 2c 1e 00 00       	call   403b18 <_InitializeCriticalSection@4>
  401cec:	83 ec 04             	sub    $0x4,%esp
  401cef:	eb db                	jmp    401ccc <___mingw_TLScallback+0x5c>
  401cf1:	e8 ea fd ff ff       	call   401ae0 <.text>
  401cf6:	eb 94                	jmp    401c8c <___mingw_TLScallback+0x1c>
  401cf8:	90                   	nop
  401cf9:	8d b4 26 00 00 00 00 	lea    0x0(%esi,%eiz,1),%esi
  401d00:	e8 db fd ff ff       	call   401ae0 <.text>
  401d05:	eb 97                	jmp    401c9e <___mingw_TLScallback+0x2e>
  401d07:	90                   	nop
  401d08:	90                   	nop
  401d09:	90                   	nop
  401d0a:	90                   	nop
  401d0b:	90                   	nop
  401d0c:	90                   	nop
  401d0d:	90                   	nop
  401d0e:	90                   	nop
  401d0f:	90                   	nop

00401d10 <.text>:
  401d10:	56                   	push   %esi
  401d11:	53                   	push   %ebx
  401d12:	83 ec 14             	sub    $0x14,%esp
  401d15:	a1 a0 81 40 00       	mov    0x4081a0,%eax
  401d1a:	c7 44 24 08 17 00 00 	movl   $0x17,0x8(%esp)
  401d21:	00 
  401d22:	c7 44 24 04 01 00 00 	movl   $0x1,0x4(%esp)
  401d29:	00 
  401d2a:	8d 74 24 24          	lea    0x24(%esp),%esi
  401d2e:	c7 04 24 68 50 40 00 	movl   $0x405068,(%esp)
  401d35:	8d 58 40             	lea    0x40(%eax),%ebx
  401d38:	89 5c 24 0c          	mov    %ebx,0xc(%esp)
  401d3c:	e8 47 1d 00 00       	call   403a88 <_fwrite>
  401d41:	8b 44 24 20          	mov    0x20(%esp),%eax
  401d45:	89 74 24 08          	mov    %esi,0x8(%esp)
  401d49:	89 1c 24             	mov    %ebx,(%esp)
  401d4c:	89 44 24 04          	mov    %eax,0x4(%esp)
  401d50:	e8 e3 1c 00 00       	call   403a38 <_vfprintf>
  401d55:	e8 46 1d 00 00       	call   403aa0 <_abort>
  401d5a:	8d b6 00 00 00 00    	lea    0x0(%esi),%esi
  401d60:	55                   	push   %ebp
  401d61:	57                   	push   %edi
  401d62:	89 cf                	mov    %ecx,%edi
  401d64:	56                   	push   %esi
  401d65:	53                   	push   %ebx
  401d66:	89 c3                	mov    %eax,%ebx
  401d68:	89 d6                	mov    %edx,%esi
  401d6a:	83 ec 4c             	sub    $0x4c,%esp
  401d6d:	8d 44 24 24          	lea    0x24(%esp),%eax
  401d71:	c7 44 24 08 1c 00 00 	movl   $0x1c,0x8(%esp)
  401d78:	00 
  401d79:	89 1c 24             	mov    %ebx,(%esp)
  401d7c:	89 44 24 04          	mov    %eax,0x4(%esp)
  401d80:	e8 63 1d 00 00       	call   403ae8 <_VirtualQuery@12>
  401d85:	83 ec 0c             	sub    $0xc,%esp
  401d88:	85 c0                	test   %eax,%eax
  401d8a:	0f 84 a8 00 00 00    	je     401e38 <.text+0x128>
  401d90:	8b 44 24 38          	mov    0x38(%esp),%eax
  401d94:	83 f8 40             	cmp    $0x40,%eax
  401d97:	74 05                	je     401d9e <.text+0x8e>
  401d99:	83 f8 04             	cmp    $0x4,%eax
  401d9c:	75 22                	jne    401dc0 <.text+0xb0>
  401d9e:	89 7c 24 08          	mov    %edi,0x8(%esp)
  401da2:	89 74 24 04          	mov    %esi,0x4(%esp)
  401da6:	89 1c 24             	mov    %ebx,(%esp)
  401da9:	e8 c2 1c 00 00       	call   403a70 <_memcpy>
  401dae:	83 c4 4c             	add    $0x4c,%esp
  401db1:	5b                   	pop    %ebx
  401db2:	5e                   	pop    %esi
  401db3:	5f                   	pop    %edi
  401db4:	5d                   	pop    %ebp
  401db5:	c3                   	ret    
  401db6:	8d 76 00             	lea    0x0(%esi),%esi
  401db9:	8d bc 27 00 00 00 00 	lea    0x0(%edi,%eiz,1),%edi
  401dc0:	8b 44 24 30          	mov    0x30(%esp),%eax
  401dc4:	8d 6c 24 20          	lea    0x20(%esp),%ebp
  401dc8:	c7 44 24 08 40 00 00 	movl   $0x40,0x8(%esp)
  401dcf:	00 
  401dd0:	89 6c 24 0c          	mov    %ebp,0xc(%esp)
  401dd4:	89 44 24 04          	mov    %eax,0x4(%esp)
  401dd8:	8b 44 24 24          	mov    0x24(%esp),%eax
  401ddc:	89 04 24             	mov    %eax,(%esp)
  401ddf:	e8 0c 1d 00 00       	call   403af0 <_VirtualProtect@16>
  401de4:	83 ec 10             	sub    $0x10,%esp
  401de7:	8b 54 24 38          	mov    0x38(%esp),%edx
  401deb:	89 7c 24 08          	mov    %edi,0x8(%esp)
  401def:	89 74 24 04          	mov    %esi,0x4(%esp)
  401df3:	89 1c 24             	mov    %ebx,(%esp)
  401df6:	89 54 24 1c          	mov    %edx,0x1c(%esp)
  401dfa:	e8 71 1c 00 00       	call   403a70 <_memcpy>
  401dff:	8b 54 24 1c          	mov    0x1c(%esp),%edx
  401e03:	83 fa 40             	cmp    $0x40,%edx
  401e06:	74 a6                	je     401dae <.text+0x9e>
  401e08:	83 fa 04             	cmp    $0x4,%edx
  401e0b:	74 a1                	je     401dae <.text+0x9e>
  401e0d:	8b 44 24 20          	mov    0x20(%esp),%eax
  401e11:	89 6c 24 0c          	mov    %ebp,0xc(%esp)
  401e15:	89 44 24 08          	mov    %eax,0x8(%esp)
  401e19:	8b 44 24 30          	mov    0x30(%esp),%eax
  401e1d:	89 44 24 04          	mov    %eax,0x4(%esp)
  401e21:	8b 44 24 24          	mov    0x24(%esp),%eax
  401e25:	89 04 24             	mov    %eax,(%esp)
  401e28:	e8 c3 1c 00 00       	call   403af0 <_VirtualProtect@16>
  401e2d:	83 ec 10             	sub    $0x10,%esp
  401e30:	83 c4 4c             	add    $0x4c,%esp
  401e33:	5b                   	pop    %ebx
  401e34:	5e                   	pop    %esi
  401e35:	5f                   	pop    %edi
  401e36:	5d                   	pop    %ebp
  401e37:	c3                   	ret    
  401e38:	89 5c 24 08          	mov    %ebx,0x8(%esp)
  401e3c:	c7 44 24 04 1c 00 00 	movl   $0x1c,0x4(%esp)
  401e43:	00 
  401e44:	c7 04 24 80 50 40 00 	movl   $0x405080,(%esp)
  401e4b:	e8 c0 fe ff ff       	call   401d10 <.text>

00401e50 <__pei386_runtime_relocator>:
  401e50:	a1 5c 70 40 00       	mov    0x40705c,%eax
  401e55:	85 c0                	test   %eax,%eax
  401e57:	74 07                	je     401e60 <__pei386_runtime_relocator+0x10>
  401e59:	c3                   	ret    
  401e5a:	8d b6 00 00 00 00    	lea    0x0(%esi),%esi
  401e60:	b8 d0 52 40 00       	mov    $0x4052d0,%eax
  401e65:	c7 05 5c 70 40 00 01 	movl   $0x1,0x40705c
  401e6c:	00 00 00 
  401e6f:	2d d0 52 40 00       	sub    $0x4052d0,%eax
  401e74:	83 f8 07             	cmp    $0x7,%eax
  401e77:	7e e0                	jle    401e59 <__pei386_runtime_relocator+0x9>
  401e79:	57                   	push   %edi
  401e7a:	56                   	push   %esi
  401e7b:	53                   	push   %ebx
  401e7c:	83 ec 20             	sub    $0x20,%esp
  401e7f:	83 f8 0b             	cmp    $0xb,%eax
  401e82:	0f 8e e8 00 00 00    	jle    401f70 <__pei386_runtime_relocator+0x120>
  401e88:	8b 35 d0 52 40 00    	mov    0x4052d0,%esi
  401e8e:	85 f6                	test   %esi,%esi
  401e90:	0f 85 8f 00 00 00    	jne    401f25 <__pei386_runtime_relocator+0xd5>
  401e96:	8b 1d d4 52 40 00    	mov    0x4052d4,%ebx
  401e9c:	85 db                	test   %ebx,%ebx
  401e9e:	0f 85 81 00 00 00    	jne    401f25 <__pei386_runtime_relocator+0xd5>
  401ea4:	8b 0d d8 52 40 00    	mov    0x4052d8,%ecx
  401eaa:	bb dc 52 40 00       	mov    $0x4052dc,%ebx
  401eaf:	85 c9                	test   %ecx,%ecx
  401eb1:	0f 84 be 00 00 00    	je     401f75 <__pei386_runtime_relocator+0x125>
  401eb7:	bb d0 52 40 00       	mov    $0x4052d0,%ebx
  401ebc:	8b 43 08             	mov    0x8(%ebx),%eax
  401ebf:	83 f8 01             	cmp    $0x1,%eax
  401ec2:	0f 85 43 01 00 00    	jne    40200b <__pei386_runtime_relocator+0x1bb>
  401ec8:	83 c3 0c             	add    $0xc,%ebx
  401ecb:	81 fb d0 52 40 00    	cmp    $0x4052d0,%ebx
  401ed1:	0f 83 89 00 00 00    	jae    401f60 <__pei386_runtime_relocator+0x110>
  401ed7:	8b 13                	mov    (%ebx),%edx
  401ed9:	8b 7b 04             	mov    0x4(%ebx),%edi
  401edc:	8d b2 00 00 40 00    	lea    0x400000(%edx),%esi
  401ee2:	8b 8a 00 00 40 00    	mov    0x400000(%edx),%ecx
  401ee8:	0f b6 53 08          	movzbl 0x8(%ebx),%edx
  401eec:	8d 87 00 00 40 00    	lea    0x400000(%edi),%eax
  401ef2:	83 fa 10             	cmp    $0x10,%edx
  401ef5:	0f 84 95 00 00 00    	je     401f90 <__pei386_runtime_relocator+0x140>
  401efb:	83 fa 20             	cmp    $0x20,%edx
  401efe:	0f 84 ec 00 00 00    	je     401ff0 <__pei386_runtime_relocator+0x1a0>
  401f04:	83 fa 08             	cmp    $0x8,%edx
  401f07:	0f 84 b3 00 00 00    	je     401fc0 <__pei386_runtime_relocator+0x170>
  401f0d:	89 54 24 04          	mov    %edx,0x4(%esp)
  401f11:	c7 04 24 e8 50 40 00 	movl   $0x4050e8,(%esp)
  401f18:	c7 44 24 1c 00 00 00 	movl   $0x0,0x1c(%esp)
  401f1f:	00 
  401f20:	e8 eb fd ff ff       	call   401d10 <.text>
  401f25:	bb d0 52 40 00       	mov    $0x4052d0,%ebx
  401f2a:	81 fb d0 52 40 00    	cmp    $0x4052d0,%ebx
  401f30:	73 2e                	jae    401f60 <__pei386_runtime_relocator+0x110>
  401f32:	8b 4b 04             	mov    0x4(%ebx),%ecx
  401f35:	8b 13                	mov    (%ebx),%edx
  401f37:	83 c3 08             	add    $0x8,%ebx
  401f3a:	03 91 00 00 40 00    	add    0x400000(%ecx),%edx
  401f40:	8d 81 00 00 40 00    	lea    0x400000(%ecx),%eax
  401f46:	b9 04 00 00 00       	mov    $0x4,%ecx
  401f4b:	89 54 24 1c          	mov    %edx,0x1c(%esp)
  401f4f:	8d 54 24 1c          	lea    0x1c(%esp),%edx
  401f53:	e8 08 fe ff ff       	call   401d60 <.text+0x50>
  401f58:	81 fb d0 52 40 00    	cmp    $0x4052d0,%ebx
  401f5e:	72 d2                	jb     401f32 <__pei386_runtime_relocator+0xe2>
  401f60:	83 c4 20             	add    $0x20,%esp
  401f63:	5b                   	pop    %ebx
  401f64:	5e                   	pop    %esi
  401f65:	5f                   	pop    %edi
  401f66:	c3                   	ret    
  401f67:	89 f6                	mov    %esi,%esi
  401f69:	8d bc 27 00 00 00 00 	lea    0x0(%edi,%eiz,1),%edi
  401f70:	bb d0 52 40 00       	mov    $0x4052d0,%ebx
  401f75:	8b 13                	mov    (%ebx),%edx
  401f77:	85 d2                	test   %edx,%edx
  401f79:	75 af                	jne    401f2a <__pei386_runtime_relocator+0xda>
  401f7b:	8b 43 04             	mov    0x4(%ebx),%eax
  401f7e:	85 c0                	test   %eax,%eax
  401f80:	0f 84 36 ff ff ff    	je     401ebc <__pei386_runtime_relocator+0x6c>
  401f86:	eb a2                	jmp    401f2a <__pei386_runtime_relocator+0xda>
  401f88:	90                   	nop
  401f89:	8d b4 26 00 00 00 00 	lea    0x0(%esi,%eiz,1),%esi
  401f90:	0f b7 97 00 00 40 00 	movzwl 0x400000(%edi),%edx
  401f97:	66 85 d2             	test   %dx,%dx
  401f9a:	79 06                	jns    401fa2 <__pei386_runtime_relocator+0x152>
  401f9c:	81 ca 00 00 ff ff    	or     $0xffff0000,%edx
  401fa2:	29 f2                	sub    %esi,%edx
  401fa4:	01 d1                	add    %edx,%ecx
  401fa6:	8d 54 24 1c          	lea    0x1c(%esp),%edx
  401faa:	89 4c 24 1c          	mov    %ecx,0x1c(%esp)
  401fae:	b9 02 00 00 00       	mov    $0x2,%ecx
  401fb3:	e8 a8 fd ff ff       	call   401d60 <.text+0x50>
  401fb8:	e9 0b ff ff ff       	jmp    401ec8 <__pei386_runtime_relocator+0x78>
  401fbd:	8d 76 00             	lea    0x0(%esi),%esi
  401fc0:	0f b6 38             	movzbl (%eax),%edi
  401fc3:	89 fa                	mov    %edi,%edx
  401fc5:	84 d2                	test   %dl,%dl
  401fc7:	79 06                	jns    401fcf <__pei386_runtime_relocator+0x17f>
  401fc9:	81 cf 00 ff ff ff    	or     $0xffffff00,%edi
  401fcf:	29 f7                	sub    %esi,%edi
  401fd1:	8d 54 24 1c          	lea    0x1c(%esp),%edx
  401fd5:	01 f9                	add    %edi,%ecx
  401fd7:	89 4c 24 1c          	mov    %ecx,0x1c(%esp)
  401fdb:	b9 01 00 00 00       	mov    $0x1,%ecx
  401fe0:	e8 7b fd ff ff       	call   401d60 <.text+0x50>
  401fe5:	e9 de fe ff ff       	jmp    401ec8 <__pei386_runtime_relocator+0x78>
  401fea:	8d b6 00 00 00 00    	lea    0x0(%esi),%esi
  401ff0:	29 f1                	sub    %esi,%ecx
  401ff2:	03 08                	add    (%eax),%ecx
  401ff4:	8d 54 24 1c          	lea    0x1c(%esp),%edx
  401ff8:	89 4c 24 1c          	mov    %ecx,0x1c(%esp)
  401ffc:	b9 04 00 00 00       	mov    $0x4,%ecx
  402001:	e8 5a fd ff ff       	call   401d60 <.text+0x50>
  402006:	e9 bd fe ff ff       	jmp    401ec8 <__pei386_runtime_relocator+0x78>
  40200b:	89 44 24 04          	mov    %eax,0x4(%esp)
  40200f:	c7 04 24 b4 50 40 00 	movl   $0x4050b4,(%esp)
  402016:	e8 f5 fc ff ff       	call   401d10 <.text>
  40201b:	90                   	nop
  40201c:	90                   	nop
  40201d:	90                   	nop
  40201e:	90                   	nop
  40201f:	90                   	nop

00402020 <___chkstk_ms>:
  402020:	51                   	push   %ecx
  402021:	50                   	push   %eax
  402022:	3d 00 10 00 00       	cmp    $0x1000,%eax
  402027:	8d 4c 24 0c          	lea    0xc(%esp),%ecx
  40202b:	72 15                	jb     402042 <___chkstk_ms+0x22>
  40202d:	81 e9 00 10 00 00    	sub    $0x1000,%ecx
  402033:	83 09 00             	orl    $0x0,(%ecx)
  402036:	2d 00 10 00 00       	sub    $0x1000,%eax
  40203b:	3d 00 10 00 00       	cmp    $0x1000,%eax
  402040:	77 eb                	ja     40202d <___chkstk_ms+0xd>
  402042:	29 c1                	sub    %eax,%ecx
  402044:	83 09 00             	orl    $0x0,(%ecx)
  402047:	58                   	pop    %eax
  402048:	59                   	pop    %ecx
  402049:	c3                   	ret    
  40204a:	90                   	nop
  40204b:	90                   	nop

0040204c <.text>:
  40204c:	66 90                	xchg   %ax,%ax
  40204e:	66 90                	xchg   %ax,%ax

00402050 <_fesetenv>:
  402050:	83 ec 1c             	sub    $0x1c,%esp
  402053:	8b 44 24 20          	mov    0x20(%esp),%eax
  402057:	c7 44 24 0c 80 1f 00 	movl   $0x1f80,0xc(%esp)
  40205e:	00 
  40205f:	83 f8 fd             	cmp    $0xfffffffd,%eax
  402062:	74 31                	je     402095 <_fesetenv+0x45>
  402064:	83 f8 fc             	cmp    $0xfffffffc,%eax
  402067:	74 3a                	je     4020a3 <_fesetenv+0x53>
  402069:	85 c0                	test   %eax,%eax
  40206b:	74 48                	je     4020b5 <_fesetenv+0x65>
  40206d:	83 f8 ff             	cmp    $0xffffffff,%eax
  402070:	74 2d                	je     40209f <_fesetenv+0x4f>
  402072:	83 f8 fe             	cmp    $0xfffffffe,%eax
  402075:	74 36                	je     4020ad <_fesetenv+0x5d>
  402077:	d9 20                	fldenv (%eax)
  402079:	0f b7 40 1c          	movzwl 0x1c(%eax),%eax
  40207d:	89 44 24 0c          	mov    %eax,0xc(%esp)
  402081:	f6 05 24 70 40 00 10 	testb  $0x10,0x407024
  402088:	74 05                	je     40208f <_fesetenv+0x3f>
  40208a:	0f ae 54 24 0c       	ldmxcsr 0xc(%esp)
  40208f:	31 c0                	xor    %eax,%eax
  402091:	83 c4 1c             	add    $0x1c,%esp
  402094:	c3                   	ret    
  402095:	c7 05 14 40 40 00 ff 	movl   $0xffffffff,0x404014
  40209c:	ff ff ff 
  40209f:	db e3                	fninit 
  4020a1:	eb de                	jmp    402081 <_fesetenv+0x31>
  4020a3:	c7 05 14 40 40 00 fe 	movl   $0xfffffffe,0x404014
  4020aa:	ff ff ff 
  4020ad:	ff 15 98 81 40 00    	call   *0x408198
  4020b3:	eb cc                	jmp    402081 <_fesetenv+0x31>
  4020b5:	a1 14 40 40 00       	mov    0x404014,%eax
  4020ba:	eb b1                	jmp    40206d <_fesetenv+0x1d>
  4020bc:	90                   	nop
  4020bd:	90                   	nop
  4020be:	90                   	nop
  4020bf:	90                   	nop

004020c0 <.text>:
  4020c0:	85 c0                	test   %eax,%eax
  4020c2:	0f 84 82 00 00 00    	je     40214a <.text+0x8a>
  4020c8:	56                   	push   %esi
  4020c9:	53                   	push   %ebx
  4020ca:	89 d3                	mov    %edx,%ebx
  4020cc:	c1 eb 05             	shr    $0x5,%ebx
  4020cf:	31 c9                	xor    %ecx,%ecx
  4020d1:	83 f3 01             	xor    $0x1,%ebx
  4020d4:	83 e3 01             	and    $0x1,%ebx
  4020d7:	89 f6                	mov    %esi,%esi
  4020d9:	8d bc 27 00 00 00 00 	lea    0x0(%edi,%eiz,1),%edi
  4020e0:	0f be 10             	movsbl (%eax),%edx
  4020e3:	85 d2                	test   %edx,%edx
  4020e5:	74 29                	je     402110 <.text+0x50>
  4020e7:	84 db                	test   %bl,%bl
  4020e9:	74 05                	je     4020f0 <.text+0x30>
  4020eb:	83 fa 7f             	cmp    $0x7f,%edx
  4020ee:	74 40                	je     402130 <.text+0x70>
  4020f0:	83 c0 01             	add    $0x1,%eax
  4020f3:	85 c9                	test   %ecx,%ecx
  4020f5:	75 1e                	jne    402115 <.text+0x55>
  4020f7:	83 fa 2a             	cmp    $0x2a,%edx
  4020fa:	74 44                	je     402140 <.text+0x80>
  4020fc:	83 fa 3f             	cmp    $0x3f,%edx
  4020ff:	74 3f                	je     402140 <.text+0x80>
  402101:	31 c9                	xor    %ecx,%ecx
  402103:	83 fa 5b             	cmp    $0x5b,%edx
  402106:	0f be 10             	movsbl (%eax),%edx
  402109:	0f 94 c1             	sete   %cl
  40210c:	85 d2                	test   %edx,%edx
  40210e:	75 d7                	jne    4020e7 <.text+0x27>
  402110:	89 d0                	mov    %edx,%eax
  402112:	5b                   	pop    %ebx
  402113:	5e                   	pop    %esi
  402114:	c3                   	ret    
  402115:	83 f9 01             	cmp    $0x1,%ecx
  402118:	7e 05                	jle    40211f <.text+0x5f>
  40211a:	83 fa 5d             	cmp    $0x5d,%edx
  40211d:	74 21                	je     402140 <.text+0x80>
  40211f:	83 fa 21             	cmp    $0x21,%edx
  402122:	0f 95 c2             	setne  %dl
  402125:	0f b6 d2             	movzbl %dl,%edx
  402128:	01 d1                	add    %edx,%ecx
  40212a:	eb b4                	jmp    4020e0 <.text+0x20>
  40212c:	8d 74 26 00          	lea    0x0(%esi,%eiz,1),%esi
  402130:	80 78 01 00          	cmpb   $0x0,0x1(%eax)
  402134:	8d 70 02             	lea    0x2(%eax),%esi
  402137:	74 16                	je     40214f <.text+0x8f>
  402139:	89 f0                	mov    %esi,%eax
  40213b:	eb b6                	jmp    4020f3 <.text+0x33>
  40213d:	8d 76 00             	lea    0x0(%esi),%esi
  402140:	ba 01 00 00 00       	mov    $0x1,%edx
  402145:	89 d0                	mov    %edx,%eax
  402147:	5b                   	pop    %ebx
  402148:	5e                   	pop    %esi
  402149:	c3                   	ret    
  40214a:	31 d2                	xor    %edx,%edx
  40214c:	89 d0                	mov    %edx,%eax
  40214e:	c3                   	ret    
  40214f:	31 d2                	xor    %edx,%edx
  402151:	eb bd                	jmp    402110 <.text+0x50>
  402153:	8d b6 00 00 00 00    	lea    0x0(%esi),%esi
  402159:	8d bc 27 00 00 00 00 	lea    0x0(%edi,%eiz,1),%edi
  402160:	85 c0                	test   %eax,%eax
  402162:	74 5c                	je     4021c0 <.text+0x100>
  402164:	56                   	push   %esi
  402165:	53                   	push   %ebx
  402166:	89 c6                	mov    %eax,%esi
  402168:	83 ec 14             	sub    $0x14,%esp
  40216b:	8b 40 0c             	mov    0xc(%eax),%eax
  40216e:	8d 58 01             	lea    0x1(%eax),%ebx
  402171:	8d 04 9d 00 00 00 00 	lea    0x0(,%ebx,4),%eax
  402178:	89 04 24             	mov    %eax,(%esp)
  40217b:	e8 00 19 00 00       	call   403a80 <_malloc>
  402180:	89 c1                	mov    %eax,%ecx
  402182:	89 46 08             	mov    %eax,0x8(%esi)
  402185:	b8 03 00 00 00       	mov    $0x3,%eax
  40218a:	85 c9                	test   %ecx,%ecx
  40218c:	74 22                	je     4021b0 <.text+0xf0>
  40218e:	85 db                	test   %ebx,%ebx
  402190:	89 da                	mov    %ebx,%edx
  402192:	c7 46 04 00 00 00 00 	movl   $0x0,0x4(%esi)
  402199:	7e 13                	jle    4021ae <.text+0xee>
  40219b:	90                   	nop
  40219c:	8d 74 26 00          	lea    0x0(%esi,%eiz,1),%esi
  4021a0:	83 ea 01             	sub    $0x1,%edx
  4021a3:	85 d2                	test   %edx,%edx
  4021a5:	c7 04 91 00 00 00 00 	movl   $0x0,(%ecx,%edx,4)
  4021ac:	75 f2                	jne    4021a0 <.text+0xe0>
  4021ae:	31 c0                	xor    %eax,%eax
  4021b0:	83 c4 14             	add    $0x14,%esp
  4021b3:	5b                   	pop    %ebx
  4021b4:	5e                   	pop    %esi
  4021b5:	c3                   	ret    
  4021b6:	8d 76 00             	lea    0x0(%esi),%esi
  4021b9:	8d bc 27 00 00 00 00 	lea    0x0(%edi,%eiz,1),%edi
  4021c0:	31 c0                	xor    %eax,%eax
  4021c2:	c3                   	ret    
  4021c3:	8d b6 00 00 00 00    	lea    0x0(%esi),%esi
  4021c9:	8d bc 27 00 00 00 00 	lea    0x0(%edi,%eiz,1),%edi
  4021d0:	55                   	push   %ebp
  4021d1:	57                   	push   %edi
  4021d2:	89 c7                	mov    %eax,%edi
  4021d4:	56                   	push   %esi
  4021d5:	53                   	push   %ebx
  4021d6:	83 ec 3c             	sub    $0x3c,%esp
  4021d9:	0f be 18             	movsbl (%eax),%ebx
  4021dc:	89 54 24 1c          	mov    %edx,0x1c(%esp)
  4021e0:	89 4c 24 20          	mov    %ecx,0x20(%esp)
  4021e4:	83 fb 5d             	cmp    $0x5d,%ebx
  4021e7:	89 dd                	mov    %ebx,%ebp
  4021e9:	0f 84 61 01 00 00    	je     402350 <.text+0x290>
  4021ef:	83 fb 2d             	cmp    $0x2d,%ebx
  4021f2:	0f 84 58 01 00 00    	je     402350 <.text+0x290>
  4021f8:	8b 4c 24 1c          	mov    0x1c(%esp),%ecx
  4021fc:	89 c8                	mov    %ecx,%eax
  4021fe:	f7 d0                	not    %eax
  402200:	89 44 24 28          	mov    %eax,0x28(%esp)
  402204:	b8 01 00 00 00       	mov    $0x1,%eax
  402209:	29 c8                	sub    %ecx,%eax
  40220b:	89 44 24 2c          	mov    %eax,0x2c(%esp)
  40220f:	eb 0d                	jmp    40221e <.text+0x15e>
  402211:	89 ee                	mov    %ebp,%esi
  402213:	2b 74 24 1c          	sub    0x1c(%esp),%esi
  402217:	85 f6                	test   %esi,%esi
  402219:	74 68                	je     402283 <.text+0x1c3>
  40221b:	0f be da             	movsbl %dl,%ebx
  40221e:	83 fb 5d             	cmp    $0x5d,%ebx
  402221:	8d 77 01             	lea    0x1(%edi),%esi
  402224:	0f 84 1a 01 00 00    	je     402344 <.text+0x284>
  40222a:	83 fb 2d             	cmp    $0x2d,%ebx
  40222d:	0f 84 8d 00 00 00    	je     4022c0 <.text+0x200>
  402233:	85 db                	test   %ebx,%ebx
  402235:	0f 84 09 01 00 00    	je     402344 <.text+0x284>
  40223b:	83 fb 2f             	cmp    $0x2f,%ebx
  40223e:	0f 84 00 01 00 00    	je     402344 <.text+0x284>
  402244:	83 fb 5c             	cmp    $0x5c,%ebx
  402247:	0f 84 f7 00 00 00    	je     402344 <.text+0x284>
  40224d:	0f b6 16             	movzbl (%esi),%edx
  402250:	89 dd                	mov    %ebx,%ebp
  402252:	89 f7                	mov    %esi,%edi
  402254:	f7 44 24 20 00 40 00 	testl  $0x4000,0x20(%esp)
  40225b:	00 
  40225c:	75 b3                	jne    402211 <.text+0x151>
  40225e:	89 2c 24             	mov    %ebp,(%esp)
  402261:	88 54 24 24          	mov    %dl,0x24(%esp)
  402265:	e8 d6 17 00 00       	call   403a40 <_tolower>
  40226a:	89 c6                	mov    %eax,%esi
  40226c:	8b 44 24 1c          	mov    0x1c(%esp),%eax
  402270:	89 04 24             	mov    %eax,(%esp)
  402273:	e8 c8 17 00 00       	call   403a40 <_tolower>
  402278:	29 c6                	sub    %eax,%esi
  40227a:	0f b6 54 24 24       	movzbl 0x24(%esp),%edx
  40227f:	85 f6                	test   %esi,%esi
  402281:	75 98                	jne    40221b <.text+0x15b>
  402283:	8b 44 24 20          	mov    0x20(%esp),%eax
  402287:	83 e0 20             	and    $0x20,%eax
  40228a:	eb 12                	jmp    40229e <.text+0x1de>
  40228c:	8d 74 26 00          	lea    0x0(%esi,%eiz,1),%esi
  402290:	83 c7 01             	add    $0x1,%edi
  402293:	84 d2                	test   %dl,%dl
  402295:	0f 84 a9 00 00 00    	je     402344 <.text+0x284>
  40229b:	0f b6 17             	movzbl (%edi),%edx
  40229e:	80 fa 5d             	cmp    $0x5d,%dl
  4022a1:	0f 84 3e 01 00 00    	je     4023e5 <.text+0x325>
  4022a7:	80 fa 7f             	cmp    $0x7f,%dl
  4022aa:	75 e4                	jne    402290 <.text+0x1d0>
  4022ac:	85 c0                	test   %eax,%eax
  4022ae:	0f 85 3c 01 00 00    	jne    4023f0 <.text+0x330>
  4022b4:	0f b6 57 01          	movzbl 0x1(%edi),%edx
  4022b8:	83 c7 01             	add    $0x1,%edi
  4022bb:	eb d3                	jmp    402290 <.text+0x1d0>
  4022bd:	8d 76 00             	lea    0x0(%esi),%esi
  4022c0:	0f b6 57 01          	movzbl 0x1(%edi),%edx
  4022c4:	80 fa 5d             	cmp    $0x5d,%dl
  4022c7:	0f 84 95 00 00 00    	je     402362 <.text+0x2a2>
  4022cd:	0f be da             	movsbl %dl,%ebx
  4022d0:	85 db                	test   %ebx,%ebx
  4022d2:	74 70                	je     402344 <.text+0x284>
  4022d4:	8b 4c 24 20          	mov    0x20(%esp),%ecx
  4022d8:	8d 77 02             	lea    0x2(%edi),%esi
  4022db:	81 e1 00 40 00 00    	and    $0x4000,%ecx
  4022e1:	39 dd                	cmp    %ebx,%ebp
  4022e3:	0f 8d 0f 01 00 00    	jge    4023f8 <.text+0x338>
  4022e9:	89 74 24 24          	mov    %esi,0x24(%esp)
  4022ed:	89 e8                	mov    %ebp,%eax
  4022ef:	89 ce                	mov    %ecx,%esi
  4022f1:	eb 11                	jmp    402304 <.text+0x244>
  4022f3:	8b 44 24 28          	mov    0x28(%esp),%eax
  4022f7:	8d 3c 28             	lea    (%eax,%ebp,1),%edi
  4022fa:	85 ff                	test   %edi,%edi
  4022fc:	74 29                	je     402327 <.text+0x267>
  4022fe:	39 eb                	cmp    %ebp,%ebx
  402300:	89 e8                	mov    %ebp,%eax
  402302:	74 6c                	je     402370 <.text+0x2b0>
  402304:	85 f6                	test   %esi,%esi
  402306:	8d 68 01             	lea    0x1(%eax),%ebp
  402309:	75 e8                	jne    4022f3 <.text+0x233>
  40230b:	89 04 24             	mov    %eax,(%esp)
  40230e:	e8 2d 17 00 00       	call   403a40 <_tolower>
  402313:	89 c7                	mov    %eax,%edi
  402315:	8b 44 24 1c          	mov    0x1c(%esp),%eax
  402319:	89 04 24             	mov    %eax,(%esp)
  40231c:	e8 1f 17 00 00       	call   403a40 <_tolower>
  402321:	29 c7                	sub    %eax,%edi
  402323:	85 ff                	test   %edi,%edi
  402325:	75 d7                	jne    4022fe <.text+0x23e>
  402327:	8b 54 24 20          	mov    0x20(%esp),%edx
  40232b:	8b 74 24 24          	mov    0x24(%esp),%esi
  40232f:	83 e2 20             	and    $0x20,%edx
  402332:	0f b6 06             	movzbl (%esi),%eax
  402335:	3c 5d                	cmp    $0x5d,%al
  402337:	74 61                	je     40239a <.text+0x2da>
  402339:	3c 7f                	cmp    $0x7f,%al
  40233b:	74 43                	je     402380 <.text+0x2c0>
  40233d:	83 c6 01             	add    $0x1,%esi
  402340:	84 c0                	test   %al,%al
  402342:	75 ee                	jne    402332 <.text+0x272>
  402344:	83 c4 3c             	add    $0x3c,%esp
  402347:	31 c0                	xor    %eax,%eax
  402349:	5b                   	pop    %ebx
  40234a:	5e                   	pop    %esi
  40234b:	5f                   	pop    %edi
  40234c:	5d                   	pop    %ebp
  40234d:	c3                   	ret    
  40234e:	66 90                	xchg   %ax,%ax
  402350:	3b 5c 24 1c          	cmp    0x1c(%esp),%ebx
  402354:	74 4f                	je     4023a5 <.text+0x2e5>
  402356:	0f be 5f 01          	movsbl 0x1(%edi),%ebx
  40235a:	83 c7 01             	add    $0x1,%edi
  40235d:	e9 96 fe ff ff       	jmp    4021f8 <.text+0x138>
  402362:	bd 2d 00 00 00       	mov    $0x2d,%ebp
  402367:	89 f7                	mov    %esi,%edi
  402369:	e9 e6 fe ff ff       	jmp    402254 <.text+0x194>
  40236e:	66 90                	xchg   %ax,%ax
  402370:	8b 74 24 24          	mov    0x24(%esp),%esi
  402374:	e9 c2 fe ff ff       	jmp    40223b <.text+0x17b>
  402379:	8d b4 26 00 00 00 00 	lea    0x0(%esi,%eiz,1),%esi
  402380:	85 d2                	test   %edx,%edx
  402382:	75 0c                	jne    402390 <.text+0x2d0>
  402384:	0f b6 46 01          	movzbl 0x1(%esi),%eax
  402388:	83 c6 01             	add    $0x1,%esi
  40238b:	eb b0                	jmp    40233d <.text+0x27d>
  40238d:	8d 76 00             	lea    0x0(%esi),%esi
  402390:	83 c6 01             	add    $0x1,%esi
  402393:	0f b6 06             	movzbl (%esi),%eax
  402396:	3c 5d                	cmp    $0x5d,%al
  402398:	75 9f                	jne    402339 <.text+0x279>
  40239a:	83 c4 3c             	add    $0x3c,%esp
  40239d:	8d 46 01             	lea    0x1(%esi),%eax
  4023a0:	5b                   	pop    %ebx
  4023a1:	5e                   	pop    %esi
  4023a2:	5f                   	pop    %edi
  4023a3:	5d                   	pop    %ebp
  4023a4:	c3                   	ret    
  4023a5:	8b 54 24 20          	mov    0x20(%esp),%edx
  4023a9:	83 c7 01             	add    $0x1,%edi
  4023ac:	83 e2 20             	and    $0x20,%edx
  4023af:	90                   	nop
  4023b0:	0f b6 07             	movzbl (%edi),%eax
  4023b3:	3c 5d                	cmp    $0x5d,%al
  4023b5:	74 2e                	je     4023e5 <.text+0x325>
  4023b7:	3c 7f                	cmp    $0x7f,%al
  4023b9:	74 15                	je     4023d0 <.text+0x310>
  4023bb:	83 c7 01             	add    $0x1,%edi
  4023be:	84 c0                	test   %al,%al
  4023c0:	75 ee                	jne    4023b0 <.text+0x2f0>
  4023c2:	e9 7d ff ff ff       	jmp    402344 <.text+0x284>
  4023c7:	89 f6                	mov    %esi,%esi
  4023c9:	8d bc 27 00 00 00 00 	lea    0x0(%edi,%eiz,1),%edi
  4023d0:	85 d2                	test   %edx,%edx
  4023d2:	75 0c                	jne    4023e0 <.text+0x320>
  4023d4:	0f b6 47 01          	movzbl 0x1(%edi),%eax
  4023d8:	83 c7 01             	add    $0x1,%edi
  4023db:	eb de                	jmp    4023bb <.text+0x2fb>
  4023dd:	8d 76 00             	lea    0x0(%esi),%esi
  4023e0:	83 c7 01             	add    $0x1,%edi
  4023e3:	eb cb                	jmp    4023b0 <.text+0x2f0>
  4023e5:	83 c4 3c             	add    $0x3c,%esp
  4023e8:	8d 47 01             	lea    0x1(%edi),%eax
  4023eb:	5b                   	pop    %ebx
  4023ec:	5e                   	pop    %esi
  4023ed:	5f                   	pop    %edi
  4023ee:	5d                   	pop    %ebp
  4023ef:	c3                   	ret    
  4023f0:	83 c7 01             	add    $0x1,%edi
  4023f3:	e9 a3 fe ff ff       	jmp    40229b <.text+0x1db>
  4023f8:	0f 8e 3d fe ff ff    	jle    40223b <.text+0x17b>
  4023fe:	89 74 24 24          	mov    %esi,0x24(%esp)
  402402:	89 ce                	mov    %ecx,%esi
  402404:	eb 1f                	jmp    402425 <.text+0x365>
  402406:	8d 76 00             	lea    0x0(%esi),%esi
  402409:	8d bc 27 00 00 00 00 	lea    0x0(%edi,%eiz,1),%edi
  402410:	8b 44 24 2c          	mov    0x2c(%esp),%eax
  402414:	8d 2c 38             	lea    (%eax,%edi,1),%ebp
  402417:	85 ed                	test   %ebp,%ebp
  402419:	74 2d                	je     402448 <.text+0x388>
  40241b:	39 fb                	cmp    %edi,%ebx
  40241d:	89 fd                	mov    %edi,%ebp
  40241f:	0f 84 4b ff ff ff    	je     402370 <.text+0x2b0>
  402425:	85 f6                	test   %esi,%esi
  402427:	8d 7d ff             	lea    -0x1(%ebp),%edi
  40242a:	75 e4                	jne    402410 <.text+0x350>
  40242c:	89 2c 24             	mov    %ebp,(%esp)
  40242f:	e8 0c 16 00 00       	call   403a40 <_tolower>
  402434:	89 c5                	mov    %eax,%ebp
  402436:	8b 44 24 1c          	mov    0x1c(%esp),%eax
  40243a:	89 04 24             	mov    %eax,(%esp)
  40243d:	e8 fe 15 00 00       	call   403a40 <_tolower>
  402442:	29 c5                	sub    %eax,%ebp
  402444:	85 ed                	test   %ebp,%ebp
  402446:	75 d3                	jne    40241b <.text+0x35b>
  402448:	8b 54 24 20          	mov    0x20(%esp),%edx
  40244c:	8b 74 24 24          	mov    0x24(%esp),%esi
  402450:	83 e2 20             	and    $0x20,%edx
  402453:	0f b6 06             	movzbl (%esi),%eax
  402456:	3c 5d                	cmp    $0x5d,%al
  402458:	0f 84 3c ff ff ff    	je     40239a <.text+0x2da>
  40245e:	3c 7f                	cmp    $0x7f,%al
  402460:	74 0e                	je     402470 <.text+0x3b0>
  402462:	83 c6 01             	add    $0x1,%esi
  402465:	84 c0                	test   %al,%al
  402467:	75 ea                	jne    402453 <.text+0x393>
  402469:	e9 d6 fe ff ff       	jmp    402344 <.text+0x284>
  40246e:	66 90                	xchg   %ax,%ax
  402470:	85 d2                	test   %edx,%edx
  402472:	75 0c                	jne    402480 <.text+0x3c0>
  402474:	0f b6 46 01          	movzbl 0x1(%esi),%eax
  402478:	83 c6 01             	add    $0x1,%esi
  40247b:	eb e5                	jmp    402462 <.text+0x3a2>
  40247d:	8d 76 00             	lea    0x0(%esi),%esi
  402480:	83 c6 01             	add    $0x1,%esi
  402483:	eb ce                	jmp    402453 <.text+0x393>
  402485:	8d 74 26 00          	lea    0x0(%esi,%eiz,1),%esi
  402489:	8d bc 27 00 00 00 00 	lea    0x0(%edi,%eiz,1),%edi
  402490:	55                   	push   %ebp
  402491:	57                   	push   %edi
  402492:	89 c5                	mov    %eax,%ebp
  402494:	56                   	push   %esi
  402495:	53                   	push   %ebx
  402496:	83 ec 2c             	sub    $0x2c,%esp
  402499:	80 3a 2e             	cmpb   $0x2e,(%edx)
  40249c:	89 4c 24 14          	mov    %ecx,0x14(%esp)
  4024a0:	0f b6 08             	movzbl (%eax),%ecx
  4024a3:	0f 84 37 01 00 00    	je     4025e0 <.text+0x520>
  4024a9:	8b 44 24 14          	mov    0x14(%esp),%eax
  4024ad:	8d 7a 01             	lea    0x1(%edx),%edi
  4024b0:	c1 e8 05             	shr    $0x5,%eax
  4024b3:	83 f0 01             	xor    $0x1,%eax
  4024b6:	89 44 24 18          	mov    %eax,0x18(%esp)
  4024ba:	0f be d1             	movsbl %cl,%edx
  4024bd:	8d 77 ff             	lea    -0x1(%edi),%esi
  4024c0:	8d 45 01             	lea    0x1(%ebp),%eax
  4024c3:	85 d2                	test   %edx,%edx
  4024c5:	0f 84 69 01 00 00    	je     402634 <.text+0x574>
  4024cb:	80 f9 3f             	cmp    $0x3f,%cl
  4024ce:	0f 84 ed 00 00 00    	je     4025c1 <.text+0x501>
  4024d4:	80 f9 5b             	cmp    $0x5b,%cl
  4024d7:	0f 84 b3 00 00 00    	je     402590 <.text+0x4d0>
  4024dd:	80 f9 2a             	cmp    $0x2a,%cl
  4024e0:	74 5e                	je     402540 <.text+0x480>
  4024e2:	f6 44 24 18 01       	testb  $0x1,0x18(%esp)
  4024e7:	74 09                	je     4024f2 <.text+0x432>
  4024e9:	83 fa 7f             	cmp    $0x7f,%edx
  4024ec:	0f 84 2e 01 00 00    	je     402620 <.text+0x560>
  4024f2:	89 c5                	mov    %eax,%ebp
  4024f4:	0f be 5f ff          	movsbl -0x1(%edi),%ebx
  4024f8:	84 db                	test   %bl,%bl
  4024fa:	0f 84 86 01 00 00    	je     402686 <.text+0x5c6>
  402500:	f7 44 24 14 00 40 00 	testl  $0x4000,0x14(%esp)
  402507:	00 
  402508:	0f 85 c2 00 00 00    	jne    4025d0 <.text+0x510>
  40250e:	89 14 24             	mov    %edx,(%esp)
  402511:	89 54 24 1c          	mov    %edx,0x1c(%esp)
  402515:	e8 26 15 00 00       	call   403a40 <_tolower>
  40251a:	89 1c 24             	mov    %ebx,(%esp)
  40251d:	89 c6                	mov    %eax,%esi
  40251f:	e8 1c 15 00 00       	call   403a40 <_tolower>
  402524:	8b 54 24 1c          	mov    0x1c(%esp),%edx
  402528:	29 c6                	sub    %eax,%esi
  40252a:	85 f6                	test   %esi,%esi
  40252c:	0f 84 83 00 00 00    	je     4025b5 <.text+0x4f5>
  402532:	89 d0                	mov    %edx,%eax
  402534:	29 d8                	sub    %ebx,%eax
  402536:	83 c4 2c             	add    $0x2c,%esp
  402539:	5b                   	pop    %ebx
  40253a:	5e                   	pop    %esi
  40253b:	5f                   	pop    %edi
  40253c:	5d                   	pop    %ebp
  40253d:	c3                   	ret    
  40253e:	66 90                	xchg   %ax,%ax
  402540:	0f b6 55 01          	movzbl 0x1(%ebp),%edx
  402544:	89 c3                	mov    %eax,%ebx
  402546:	80 fa 2a             	cmp    $0x2a,%dl
  402549:	75 10                	jne    40255b <.text+0x49b>
  40254b:	90                   	nop
  40254c:	8d 74 26 00          	lea    0x0(%esi,%eiz,1),%esi
  402550:	83 c3 01             	add    $0x1,%ebx
  402553:	0f b6 13             	movzbl (%ebx),%edx
  402556:	80 fa 2a             	cmp    $0x2a,%dl
  402559:	74 f5                	je     402550 <.text+0x490>
  40255b:	31 c0                	xor    %eax,%eax
  40255d:	84 d2                	test   %dl,%dl
  40255f:	74 d5                	je     402536 <.text+0x476>
  402561:	8b 7c 24 14          	mov    0x14(%esp),%edi
  402565:	81 cf 00 00 01 00    	or     $0x10000,%edi
  40256b:	eb 0c                	jmp    402579 <.text+0x4b9>
  40256d:	8d 76 00             	lea    0x0(%esi),%esi
  402570:	83 c6 01             	add    $0x1,%esi
  402573:	80 7e ff 00          	cmpb   $0x0,-0x1(%esi)
  402577:	74 bd                	je     402536 <.text+0x476>
  402579:	89 f9                	mov    %edi,%ecx
  40257b:	89 f2                	mov    %esi,%edx
  40257d:	89 d8                	mov    %ebx,%eax
  40257f:	e8 0c ff ff ff       	call   402490 <.text+0x3d0>
  402584:	85 c0                	test   %eax,%eax
  402586:	75 e8                	jne    402570 <.text+0x4b0>
  402588:	83 c4 2c             	add    $0x2c,%esp
  40258b:	5b                   	pop    %ebx
  40258c:	5e                   	pop    %esi
  40258d:	5f                   	pop    %edi
  40258e:	5d                   	pop    %ebp
  40258f:	c3                   	ret    
  402590:	0f be 57 ff          	movsbl -0x1(%edi),%edx
  402594:	85 d2                	test   %edx,%edx
  402596:	0f 84 fb 00 00 00    	je     402697 <.text+0x5d7>
  40259c:	80 7d 01 21          	cmpb   $0x21,0x1(%ebp)
  4025a0:	74 60                	je     402602 <.text+0x542>
  4025a2:	8b 4c 24 14          	mov    0x14(%esp),%ecx
  4025a6:	e8 25 fc ff ff       	call   4021d0 <.text+0x110>
  4025ab:	89 c5                	mov    %eax,%ebp
  4025ad:	85 ed                	test   %ebp,%ebp
  4025af:	0f 84 c7 00 00 00    	je     40267c <.text+0x5bc>
  4025b5:	0f b6 4d 00          	movzbl 0x0(%ebp),%ecx
  4025b9:	83 c7 01             	add    $0x1,%edi
  4025bc:	e9 f9 fe ff ff       	jmp    4024ba <.text+0x3fa>
  4025c1:	80 7f ff 00          	cmpb   $0x0,-0x1(%edi)
  4025c5:	0f 84 c2 00 00 00    	je     40268d <.text+0x5cd>
  4025cb:	89 c5                	mov    %eax,%ebp
  4025cd:	eb e6                	jmp    4025b5 <.text+0x4f5>
  4025cf:	90                   	nop
  4025d0:	89 d6                	mov    %edx,%esi
  4025d2:	29 de                	sub    %ebx,%esi
  4025d4:	e9 51 ff ff ff       	jmp    40252a <.text+0x46a>
  4025d9:	8d b4 26 00 00 00 00 	lea    0x0(%esi,%eiz,1),%esi
  4025e0:	80 f9 2e             	cmp    $0x2e,%cl
  4025e3:	0f 84 c0 fe ff ff    	je     4024a9 <.text+0x3e9>
  4025e9:	0f be c1             	movsbl %cl,%eax
  4025ec:	83 e8 2e             	sub    $0x2e,%eax
  4025ef:	f7 44 24 14 00 00 01 	testl  $0x10000,0x14(%esp)
  4025f6:	00 
  4025f7:	0f 85 ac fe ff ff    	jne    4024a9 <.text+0x3e9>
  4025fd:	e9 34 ff ff ff       	jmp    402536 <.text+0x476>
  402602:	8d 5d 02             	lea    0x2(%ebp),%ebx
  402605:	8b 4c 24 14          	mov    0x14(%esp),%ecx
  402609:	89 d8                	mov    %ebx,%eax
  40260b:	e8 c0 fb ff ff       	call   4021d0 <.text+0x110>
  402610:	85 c0                	test   %eax,%eax
  402612:	74 2a                	je     40263e <.text+0x57e>
  402614:	89 dd                	mov    %ebx,%ebp
  402616:	eb 95                	jmp    4025ad <.text+0x4ed>
  402618:	90                   	nop
  402619:	8d b4 26 00 00 00 00 	lea    0x0(%esi,%eiz,1),%esi
  402620:	0f be 55 01          	movsbl 0x1(%ebp),%edx
  402624:	83 c5 02             	add    $0x2,%ebp
  402627:	85 d2                	test   %edx,%edx
  402629:	0f 85 c5 fe ff ff    	jne    4024f4 <.text+0x434>
  40262f:	e9 be fe ff ff       	jmp    4024f2 <.text+0x432>
  402634:	0f be 06             	movsbl (%esi),%eax
  402637:	f7 d8                	neg    %eax
  402639:	e9 f8 fe ff ff       	jmp    402536 <.text+0x476>
  40263e:	0f b6 45 02          	movzbl 0x2(%ebp),%eax
  402642:	3c 5d                	cmp    $0x5d,%al
  402644:	74 5b                	je     4026a1 <.text+0x5e1>
  402646:	8b 54 24 14          	mov    0x14(%esp),%edx
  40264a:	83 e2 20             	and    $0x20,%edx
  40264d:	eb 0b                	jmp    40265a <.text+0x59a>
  40264f:	90                   	nop
  402650:	83 c3 01             	add    $0x1,%ebx
  402653:	84 c0                	test   %al,%al
  402655:	74 25                	je     40267c <.text+0x5bc>
  402657:	0f b6 03             	movzbl (%ebx),%eax
  40265a:	3c 5d                	cmp    $0x5d,%al
  40265c:	74 16                	je     402674 <.text+0x5b4>
  40265e:	3c 7f                	cmp    $0x7f,%al
  402660:	75 ee                	jne    402650 <.text+0x590>
  402662:	85 d2                	test   %edx,%edx
  402664:	75 09                	jne    40266f <.text+0x5af>
  402666:	0f b6 43 01          	movzbl 0x1(%ebx),%eax
  40266a:	83 c3 01             	add    $0x1,%ebx
  40266d:	eb e1                	jmp    402650 <.text+0x590>
  40266f:	83 c3 01             	add    $0x1,%ebx
  402672:	eb e3                	jmp    402657 <.text+0x597>
  402674:	8d 6b 01             	lea    0x1(%ebx),%ebp
  402677:	e9 31 ff ff ff       	jmp    4025ad <.text+0x4ed>
  40267c:	b8 5d 00 00 00       	mov    $0x5d,%eax
  402681:	e9 b0 fe ff ff       	jmp    402536 <.text+0x476>
  402686:	31 db                	xor    %ebx,%ebx
  402688:	e9 a5 fe ff ff       	jmp    402532 <.text+0x472>
  40268d:	b8 3f 00 00 00       	mov    $0x3f,%eax
  402692:	e9 9f fe ff ff       	jmp    402536 <.text+0x476>
  402697:	b8 5b 00 00 00       	mov    $0x5b,%eax
  40269c:	e9 95 fe ff ff       	jmp    402536 <.text+0x476>
  4026a1:	8d 5d 03             	lea    0x3(%ebp),%ebx
  4026a4:	0f b6 45 03          	movzbl 0x3(%ebp),%eax
  4026a8:	eb 9c                	jmp    402646 <.text+0x586>
  4026aa:	8d b6 00 00 00 00    	lea    0x0(%esi),%esi
  4026b0:	57                   	push   %edi
  4026b1:	56                   	push   %esi
  4026b2:	89 c6                	mov    %eax,%esi
  4026b4:	53                   	push   %ebx
  4026b5:	89 d3                	mov    %edx,%ebx
  4026b7:	83 ec 10             	sub    $0x10,%esp
  4026ba:	8b 42 0c             	mov    0xc(%edx),%eax
  4026bd:	03 42 04             	add    0x4(%edx),%eax
  4026c0:	8d 04 85 08 00 00 00 	lea    0x8(,%eax,4),%eax
  4026c7:	89 44 24 04          	mov    %eax,0x4(%esp)
  4026cb:	8b 42 08             	mov    0x8(%edx),%eax
  4026ce:	89 04 24             	mov    %eax,(%esp)
  4026d1:	e8 92 13 00 00       	call   403a68 <_realloc>
  4026d6:	85 c0                	test   %eax,%eax
  4026d8:	74 26                	je     402700 <.text+0x640>
  4026da:	8b 4b 04             	mov    0x4(%ebx),%ecx
  4026dd:	8b 53 0c             	mov    0xc(%ebx),%edx
  4026e0:	89 43 08             	mov    %eax,0x8(%ebx)
  4026e3:	8d 79 01             	lea    0x1(%ecx),%edi
  4026e6:	01 d1                	add    %edx,%ecx
  4026e8:	01 fa                	add    %edi,%edx
  4026ea:	89 7b 04             	mov    %edi,0x4(%ebx)
  4026ed:	89 34 88             	mov    %esi,(%eax,%ecx,4)
  4026f0:	c7 04 90 00 00 00 00 	movl   $0x0,(%eax,%edx,4)
  4026f7:	83 c4 10             	add    $0x10,%esp
  4026fa:	31 c0                	xor    %eax,%eax
  4026fc:	5b                   	pop    %ebx
  4026fd:	5e                   	pop    %esi
  4026fe:	5f                   	pop    %edi
  4026ff:	c3                   	ret    
  402700:	83 c4 10             	add    $0x10,%esp
  402703:	b8 01 00 00 00       	mov    $0x1,%eax
  402708:	5b                   	pop    %ebx
  402709:	5e                   	pop    %esi
  40270a:	5f                   	pop    %edi
  40270b:	c3                   	ret    
  40270c:	8d 74 26 00          	lea    0x0(%esi,%eiz,1),%esi
  402710:	56                   	push   %esi
  402711:	53                   	push   %ebx
  402712:	89 c3                	mov    %eax,%ebx
  402714:	89 d6                	mov    %edx,%esi
  402716:	83 ec 14             	sub    $0x14,%esp
  402719:	8b 00                	mov    (%eax),%eax
  40271b:	85 c0                	test   %eax,%eax
  40271d:	74 05                	je     402724 <.text+0x664>
  40271f:	e8 ec ff ff ff       	call   402710 <.text+0x650>
  402724:	8b 43 08             	mov    0x8(%ebx),%eax
  402727:	85 c0                	test   %eax,%eax
  402729:	74 04                	je     40272f <.text+0x66f>
  40272b:	85 f6                	test   %esi,%esi
  40272d:	75 21                	jne    402750 <.text+0x690>
  40272f:	8b 43 04             	mov    0x4(%ebx),%eax
  402732:	85 c0                	test   %eax,%eax
  402734:	74 07                	je     40273d <.text+0x67d>
  402736:	89 f2                	mov    %esi,%edx
  402738:	e8 d3 ff ff ff       	call   402710 <.text+0x650>
  40273d:	89 1c 24             	mov    %ebx,(%esp)
  402740:	e8 4b 13 00 00       	call   403a90 <_free>
  402745:	83 c4 14             	add    $0x14,%esp
  402748:	5b                   	pop    %ebx
  402749:	5e                   	pop    %esi
  40274a:	c3                   	ret    
  40274b:	90                   	nop
  40274c:	8d 74 26 00          	lea    0x0(%esi,%eiz,1),%esi
  402750:	89 f2                	mov    %esi,%edx
  402752:	e8 59 ff ff ff       	call   4026b0 <.text+0x5f0>
  402757:	eb d6                	jmp    40272f <.text+0x66f>
  402759:	8d b4 26 00 00 00 00 	lea    0x0(%esi,%eiz,1),%esi
  402760:	55                   	push   %ebp
  402761:	89 e5                	mov    %esp,%ebp
  402763:	57                   	push   %edi
  402764:	56                   	push   %esi
  402765:	53                   	push   %ebx
  402766:	89 c3                	mov    %eax,%ebx
  402768:	83 ec 6c             	sub    $0x6c,%esp
  40276b:	89 55 d0             	mov    %edx,-0x30(%ebp)
  40276e:	80 e6 04             	and    $0x4,%dh
  402771:	89 4d c4             	mov    %ecx,-0x3c(%ebp)
  402774:	0f 85 56 03 00 00    	jne    402ad0 <.text+0xa10>
  40277a:	89 65 a8             	mov    %esp,-0x58(%ebp)
  40277d:	89 1c 24             	mov    %ebx,(%esp)
  402780:	e8 c3 12 00 00       	call   403a48 <_strlen>
  402785:	8d 50 01             	lea    0x1(%eax),%edx
  402788:	83 c0 10             	add    $0x10,%eax
  40278b:	c1 e8 04             	shr    $0x4,%eax
  40278e:	c1 e0 04             	shl    $0x4,%eax
  402791:	e8 8a f8 ff ff       	call   402020 <___chkstk_ms>
  402796:	29 c4                	sub    %eax,%esp
  402798:	8d 44 24 0c          	lea    0xc(%esp),%eax
  40279c:	89 54 24 08          	mov    %edx,0x8(%esp)
  4027a0:	89 5c 24 04          	mov    %ebx,0x4(%esp)
  4027a4:	89 04 24             	mov    %eax,(%esp)
  4027a7:	e8 c4 12 00 00       	call   403a70 <_memcpy>
  4027ac:	89 04 24             	mov    %eax,(%esp)
  4027af:	e8 8c 09 00 00       	call   403140 <___mingw_dirname>
  4027b4:	89 45 d4             	mov    %eax,-0x2c(%ebp)
  4027b7:	89 c6                	mov    %eax,%esi
  4027b9:	8d 45 d8             	lea    -0x28(%ebp),%eax
  4027bc:	c7 45 e4 00 00 00 00 	movl   $0x0,-0x1c(%ebp)
  4027c3:	e8 98 f9 ff ff       	call   402160 <.text+0xa0>
  4027c8:	85 c0                	test   %eax,%eax
  4027ca:	89 45 cc             	mov    %eax,-0x34(%ebp)
  4027cd:	0f 85 ed 02 00 00    	jne    402ac0 <.text+0xa00>
  4027d3:	8b 7d d0             	mov    -0x30(%ebp),%edi
  4027d6:	89 f0                	mov    %esi,%eax
  4027d8:	89 fa                	mov    %edi,%edx
  4027da:	e8 e1 f8 ff ff       	call   4020c0 <.text>
  4027df:	85 c0                	test   %eax,%eax
  4027e1:	0f 84 d7 04 00 00    	je     402cbe <.text+0xbfe>
  4027e7:	8d 45 d8             	lea    -0x28(%ebp),%eax
  4027ea:	89 fa                	mov    %edi,%edx
  4027ec:	80 ce 80             	or     $0x80,%dh
  4027ef:	89 04 24             	mov    %eax,(%esp)
  4027f2:	8b 4d c4             	mov    -0x3c(%ebp),%ecx
  4027f5:	89 f0                	mov    %esi,%eax
  4027f7:	e8 64 ff ff ff       	call   402760 <.text+0x6a0>
  4027fc:	89 45 cc             	mov    %eax,-0x34(%ebp)
  4027ff:	8b 4d cc             	mov    -0x34(%ebp),%ecx
  402802:	85 c9                	test   %ecx,%ecx
  402804:	0f 85 b6 02 00 00    	jne    402ac0 <.text+0xa00>
  40280a:	0f b6 43 01          	movzbl 0x1(%ebx),%eax
  40280e:	3c 2f                	cmp    $0x2f,%al
  402810:	74 19                	je     40282b <.text+0x76b>
  402812:	3c 5c                	cmp    $0x5c,%al
  402814:	74 15                	je     40282b <.text+0x76b>
  402816:	8b 75 d4             	mov    -0x2c(%ebp),%esi
  402819:	bf 14 51 40 00       	mov    $0x405114,%edi
  40281e:	b9 02 00 00 00       	mov    $0x2,%ecx
  402823:	f3 a6                	repz cmpsb %es:(%edi),%ds:(%esi)
  402825:	0f 84 0b 05 00 00    	je     402d36 <.text+0xc76>
  40282b:	8b 45 d4             	mov    -0x2c(%ebp),%eax
  40282e:	89 04 24             	mov    %eax,(%esp)
  402831:	e8 12 12 00 00       	call   403a48 <_strlen>
  402836:	01 d8                	add    %ebx,%eax
  402838:	39 c3                	cmp    %eax,%ebx
  40283a:	0f 83 66 07 00 00    	jae    402fa6 <.text+0xee6>
  402840:	0f b6 08             	movzbl (%eax),%ecx
  402843:	80 f9 2f             	cmp    $0x2f,%cl
  402846:	88 4d a3             	mov    %cl,-0x5d(%ebp)
  402849:	0f 84 4f 07 00 00    	je     402f9e <.text+0xede>
  40284f:	80 f9 5c             	cmp    $0x5c,%cl
  402852:	75 24                	jne    402878 <.text+0x7b8>
  402854:	e9 45 07 00 00       	jmp    402f9e <.text+0xede>
  402859:	8d b4 26 00 00 00 00 	lea    0x0(%esi,%eiz,1),%esi
  402860:	0f b6 48 ff          	movzbl -0x1(%eax),%ecx
  402864:	89 d0                	mov    %edx,%eax
  402866:	80 f9 2f             	cmp    $0x2f,%cl
  402869:	0f 84 6b 06 00 00    	je     402eda <.text+0xe1a>
  40286f:	80 f9 5c             	cmp    $0x5c,%cl
  402872:	0f 84 62 06 00 00    	je     402eda <.text+0xe1a>
  402878:	8d 50 ff             	lea    -0x1(%eax),%edx
  40287b:	39 d3                	cmp    %edx,%ebx
  40287d:	75 e1                	jne    402860 <.text+0x7a0>
  40287f:	0f b6 40 ff          	movzbl -0x1(%eax),%eax
  402883:	89 55 c8             	mov    %edx,-0x38(%ebp)
  402886:	88 45 a3             	mov    %al,-0x5d(%ebp)
  402889:	0f b6 45 a3          	movzbl -0x5d(%ebp),%eax
  40288d:	3c 2f                	cmp    $0x2f,%al
  40288f:	74 08                	je     402899 <.text+0x7d9>
  402891:	3c 5c                	cmp    $0x5c,%al
  402893:	0f 85 72 06 00 00    	jne    402f0b <.text+0xe4b>
  402899:	8b 55 c8             	mov    -0x38(%ebp),%edx
  40289c:	0f b6 75 a3          	movzbl -0x5d(%ebp),%esi
  4028a0:	eb 02                	jmp    4028a4 <.text+0x7e4>
  4028a2:	89 c6                	mov    %eax,%esi
  4028a4:	83 c2 01             	add    $0x1,%edx
  4028a7:	0f b6 02             	movzbl (%edx),%eax
  4028aa:	3c 2f                	cmp    $0x2f,%al
  4028ac:	0f 94 c3             	sete   %bl
  4028af:	3c 5c                	cmp    $0x5c,%al
  4028b1:	0f 94 c1             	sete   %cl
  4028b4:	08 cb                	or     %cl,%bl
  4028b6:	75 ea                	jne    4028a2 <.text+0x7e2>
  4028b8:	89 f0                	mov    %esi,%eax
  4028ba:	89 55 c8             	mov    %edx,-0x38(%ebp)
  4028bd:	88 45 a3             	mov    %al,-0x5d(%ebp)
  4028c0:	8b 45 d4             	mov    -0x2c(%ebp),%eax
  4028c3:	89 45 a4             	mov    %eax,-0x5c(%ebp)
  4028c6:	8b 45 e0             	mov    -0x20(%ebp),%eax
  4028c9:	8b 7d d0             	mov    -0x30(%ebp),%edi
  4028cc:	c7 45 cc 02 00 00 00 	movl   $0x2,-0x34(%ebp)
  4028d3:	89 45 bc             	mov    %eax,-0x44(%ebp)
  4028d6:	8b 00                	mov    (%eax),%eax
  4028d8:	81 e7 00 80 00 00    	and    $0x8000,%edi
  4028de:	89 7d d4             	mov    %edi,-0x2c(%ebp)
  4028e1:	85 c0                	test   %eax,%eax
  4028e3:	0f 84 11 05 00 00    	je     402dfa <.text+0xd3a>
  4028e9:	89 04 24             	mov    %eax,(%esp)
  4028ec:	e8 cf 0d 00 00       	call   4036c0 <___mingw_opendir>
  4028f1:	85 c0                	test   %eax,%eax
  4028f3:	89 c7                	mov    %eax,%edi
  4028f5:	0f 84 b8 04 00 00    	je     402db3 <.text+0xcf3>
  4028fb:	8b 45 a4             	mov    -0x5c(%ebp),%eax
  4028fe:	85 c0                	test   %eax,%eax
  402900:	0f 84 74 05 00 00    	je     402e7a <.text+0xdba>
  402906:	8b 45 bc             	mov    -0x44(%ebp),%eax
  402909:	8b 00                	mov    (%eax),%eax
  40290b:	89 04 24             	mov    %eax,(%esp)
  40290e:	e8 35 11 00 00       	call   403a48 <_strlen>
  402913:	89 45 c0             	mov    %eax,-0x40(%ebp)
  402916:	8b 45 c0             	mov    -0x40(%ebp),%eax
  402919:	c7 45 b8 00 00 00 00 	movl   $0x0,-0x48(%ebp)
  402920:	83 c0 02             	add    $0x2,%eax
  402923:	89 45 ac             	mov    %eax,-0x54(%ebp)
  402926:	8d 76 00             	lea    0x0(%esi),%esi
  402929:	8d bc 27 00 00 00 00 	lea    0x0(%edi,%eiz,1),%edi
  402930:	89 3c 24             	mov    %edi,(%esp)
  402933:	e8 48 0f 00 00       	call   403880 <___mingw_readdir>
  402938:	85 c0                	test   %eax,%eax
  40293a:	89 c6                	mov    %eax,%esi
  40293c:	0f 84 11 04 00 00    	je     402d53 <.text+0xc93>
  402942:	8b 45 d4             	mov    -0x2c(%ebp),%eax
  402945:	85 c0                	test   %eax,%eax
  402947:	74 06                	je     40294f <.text+0x88f>
  402949:	83 7e 08 10          	cmpl   $0x10,0x8(%esi)
  40294d:	75 e1                	jne    402930 <.text+0x870>
  40294f:	8d 5e 0c             	lea    0xc(%esi),%ebx
  402952:	8b 4d d0             	mov    -0x30(%ebp),%ecx
  402955:	8b 45 c8             	mov    -0x38(%ebp),%eax
  402958:	89 da                	mov    %ebx,%edx
  40295a:	e8 31 fb ff ff       	call   402490 <.text+0x3d0>
  40295f:	85 c0                	test   %eax,%eax
  402961:	75 cd                	jne    402930 <.text+0x870>
  402963:	0f b7 56 06          	movzwl 0x6(%esi),%edx
  402967:	8b 45 ac             	mov    -0x54(%ebp),%eax
  40296a:	89 65 b0             	mov    %esp,-0x50(%ebp)
  40296d:	8d 44 02 0f          	lea    0xf(%edx,%eax,1),%eax
  402971:	c1 e8 04             	shr    $0x4,%eax
  402974:	c1 e0 04             	shl    $0x4,%eax
  402977:	e8 a4 f6 ff ff       	call   402020 <___chkstk_ms>
  40297c:	29 c4                	sub    %eax,%esp
  40297e:	8b 45 c0             	mov    -0x40(%ebp),%eax
  402981:	c7 45 b4 00 00 00 00 	movl   $0x0,-0x4c(%ebp)
  402988:	8d 74 24 0c          	lea    0xc(%esp),%esi
  40298c:	85 c0                	test   %eax,%eax
  40298e:	0f 85 7c 04 00 00    	jne    402e10 <.text+0xd50>
  402994:	8b 45 b4             	mov    -0x4c(%ebp),%eax
  402997:	83 c2 01             	add    $0x1,%edx
  40299a:	89 5c 24 04          	mov    %ebx,0x4(%esp)
  40299e:	89 54 24 08          	mov    %edx,0x8(%esp)
  4029a2:	89 e3                	mov    %esp,%ebx
  4029a4:	01 f0                	add    %esi,%eax
  4029a6:	89 04 24             	mov    %eax,(%esp)
  4029a9:	e8 c2 10 00 00       	call   403a70 <_memcpy>
  4029ae:	89 34 24             	mov    %esi,(%esp)
  4029b1:	e8 92 10 00 00       	call   403a48 <_strlen>
  4029b6:	83 c0 10             	add    $0x10,%eax
  4029b9:	c1 e8 04             	shr    $0x4,%eax
  4029bc:	c1 e0 04             	shl    $0x4,%eax
  4029bf:	e8 5c f6 ff ff       	call   402020 <___chkstk_ms>
  4029c4:	29 c4                	sub    %eax,%esp
  4029c6:	89 f0                	mov    %esi,%eax
  4029c8:	8d 4c 24 0c          	lea    0xc(%esp),%ecx
  4029cc:	89 ce                	mov    %ecx,%esi
  4029ce:	eb 0d                	jmp    4029dd <.text+0x91d>
  4029d0:	83 c6 01             	add    $0x1,%esi
  4029d3:	83 c0 01             	add    $0x1,%eax
  4029d6:	84 d2                	test   %dl,%dl
  4029d8:	88 56 ff             	mov    %dl,-0x1(%esi)
  4029db:	74 1c                	je     4029f9 <.text+0x939>
  4029dd:	0f b6 10             	movzbl (%eax),%edx
  4029e0:	80 fa 7f             	cmp    $0x7f,%dl
  4029e3:	75 eb                	jne    4029d0 <.text+0x910>
  4029e5:	0f b6 50 01          	movzbl 0x1(%eax),%edx
  4029e9:	83 c0 01             	add    $0x1,%eax
  4029ec:	83 c6 01             	add    $0x1,%esi
  4029ef:	83 c0 01             	add    $0x1,%eax
  4029f2:	84 d2                	test   %dl,%dl
  4029f4:	88 56 ff             	mov    %dl,-0x1(%esi)
  4029f7:	75 e4                	jne    4029dd <.text+0x91d>
  4029f9:	89 0c 24             	mov    %ecx,(%esp)
  4029fc:	e8 7f 11 00 00       	call   403b80 <_strdup>
  402a01:	85 c0                	test   %eax,%eax
  402a03:	89 c6                	mov    %eax,%esi
  402a05:	89 dc                	mov    %ebx,%esp
  402a07:	0f 84 47 04 00 00    	je     402e54 <.text+0xd94>
  402a0d:	8b 5d cc             	mov    -0x34(%ebp),%ebx
  402a10:	83 fb 02             	cmp    $0x2,%ebx
  402a13:	0f 94 c0             	sete   %al
  402a16:	0f b6 c0             	movzbl %al,%eax
  402a19:	83 e8 01             	sub    $0x1,%eax
  402a1c:	21 c3                	and    %eax,%ebx
  402a1e:	8b 45 d0             	mov    -0x30(%ebp),%eax
  402a21:	89 5d cc             	mov    %ebx,-0x34(%ebp)
  402a24:	a8 40                	test   $0x40,%al
  402a26:	0f 85 74 03 00 00    	jne    402da0 <.text+0xce0>
  402a2c:	8b 5d b8             	mov    -0x48(%ebp),%ebx
  402a2f:	85 db                	test   %ebx,%ebx
  402a31:	0f 84 ae 04 00 00    	je     402ee5 <.text+0xe25>
  402a37:	25 00 40 00 00       	and    $0x4000,%eax
  402a3c:	89 7d b4             	mov    %edi,-0x4c(%ebp)
  402a3f:	89 c7                	mov    %eax,%edi
  402a41:	eb 14                	jmp    402a57 <.text+0x997>
  402a43:	e8 08 10 00 00       	call   403a50 <_strcoll>
  402a48:	85 c0                	test   %eax,%eax
  402a4a:	8b 13                	mov    (%ebx),%edx
  402a4c:	8b 4b 04             	mov    0x4(%ebx),%ecx
  402a4f:	7e 22                	jle    402a73 <.text+0x9b3>
  402a51:	85 c9                	test   %ecx,%ecx
  402a53:	74 24                	je     402a79 <.text+0x9b9>
  402a55:	89 cb                	mov    %ecx,%ebx
  402a57:	8b 43 08             	mov    0x8(%ebx),%eax
  402a5a:	85 ff                	test   %edi,%edi
  402a5c:	89 34 24             	mov    %esi,(%esp)
  402a5f:	89 44 24 04          	mov    %eax,0x4(%esp)
  402a63:	75 de                	jne    402a43 <.text+0x983>
  402a65:	e8 0e 11 00 00       	call   403b78 <_stricoll>
  402a6a:	85 c0                	test   %eax,%eax
  402a6c:	8b 13                	mov    (%ebx),%edx
  402a6e:	8b 4b 04             	mov    0x4(%ebx),%ecx
  402a71:	7f de                	jg     402a51 <.text+0x991>
  402a73:	89 d1                	mov    %edx,%ecx
  402a75:	85 c9                	test   %ecx,%ecx
  402a77:	75 dc                	jne    402a55 <.text+0x995>
  402a79:	8b 7d b4             	mov    -0x4c(%ebp),%edi
  402a7c:	89 45 b4             	mov    %eax,-0x4c(%ebp)
  402a7f:	c7 04 24 0c 00 00 00 	movl   $0xc,(%esp)
  402a86:	e8 f5 0f 00 00       	call   403a80 <_malloc>
  402a8b:	85 c0                	test   %eax,%eax
  402a8d:	0f 84 18 03 00 00    	je     402dab <.text+0xceb>
  402a93:	8b 55 b4             	mov    -0x4c(%ebp),%edx
  402a96:	89 70 08             	mov    %esi,0x8(%eax)
  402a99:	c7 40 04 00 00 00 00 	movl   $0x0,0x4(%eax)
  402aa0:	c7 00 00 00 00 00    	movl   $0x0,(%eax)
  402aa6:	85 d2                	test   %edx,%edx
  402aa8:	0f 8e d8 03 00 00    	jle    402e86 <.text+0xdc6>
  402aae:	89 43 04             	mov    %eax,0x4(%ebx)
  402ab1:	e9 f5 02 00 00       	jmp    402dab <.text+0xceb>
  402ab6:	c7 45 cc 01 00 00 00 	movl   $0x1,-0x34(%ebp)
  402abd:	8d 76 00             	lea    0x0(%esi),%esi
  402ac0:	8b 65 a8             	mov    -0x58(%ebp),%esp
  402ac3:	8b 45 cc             	mov    -0x34(%ebp),%eax
  402ac6:	8d 65 f4             	lea    -0xc(%ebp),%esp
  402ac9:	5b                   	pop    %ebx
  402aca:	5e                   	pop    %esi
  402acb:	5f                   	pop    %edi
  402acc:	5d                   	pop    %ebp
  402acd:	c3                   	ret    
  402ace:	66 90                	xchg   %ax,%ax
  402ad0:	89 65 c0             	mov    %esp,-0x40(%ebp)
  402ad3:	89 04 24             	mov    %eax,(%esp)
  402ad6:	e8 6d 0f 00 00       	call   403a48 <_strlen>
  402adb:	83 c0 10             	add    $0x10,%eax
  402ade:	c1 e8 04             	shr    $0x4,%eax
  402ae1:	c1 e0 04             	shl    $0x4,%eax
  402ae4:	e8 37 f5 ff ff       	call   402020 <___chkstk_ms>
  402ae9:	29 c4                	sub    %eax,%esp
  402aeb:	89 de                	mov    %ebx,%esi
  402aed:	8d 44 24 0c          	lea    0xc(%esp),%eax
  402af1:	89 c7                	mov    %eax,%edi
  402af3:	89 45 c8             	mov    %eax,-0x38(%ebp)
  402af6:	0f b6 03             	movzbl (%ebx),%eax
  402af9:	3c 7f                	cmp    $0x7f,%al
  402afb:	74 28                	je     402b25 <.text+0xa65>
  402afd:	3c 7b                	cmp    $0x7b,%al
  402aff:	74 3f                	je     402b40 <.text+0xa80>
  402b01:	84 c0                	test   %al,%al
  402b03:	8d 57 01             	lea    0x1(%edi),%edx
  402b06:	8d 4e 01             	lea    0x1(%esi),%ecx
  402b09:	88 07                	mov    %al,(%edi)
  402b0b:	0f 84 bc 04 00 00    	je     402fcd <.text+0xf0d>
  402b11:	3c 7b                	cmp    $0x7b,%al
  402b13:	0f 84 b4 04 00 00    	je     402fcd <.text+0xf0d>
  402b19:	0f b6 46 01          	movzbl 0x1(%esi),%eax
  402b1d:	89 d7                	mov    %edx,%edi
  402b1f:	89 ce                	mov    %ecx,%esi
  402b21:	3c 7f                	cmp    $0x7f,%al
  402b23:	75 d8                	jne    402afd <.text+0xa3d>
  402b25:	0f b6 46 01          	movzbl 0x1(%esi),%eax
  402b29:	c6 07 7f             	movb   $0x7f,(%edi)
  402b2c:	84 c0                	test   %al,%al
  402b2e:	0f 85 ac 00 00 00    	jne    402be0 <.text+0xb20>
  402b34:	83 c7 01             	add    $0x1,%edi
  402b37:	83 c6 01             	add    $0x1,%esi
  402b3a:	eb c5                	jmp    402b01 <.text+0xa41>
  402b3c:	8d 74 26 00          	lea    0x0(%esi,%eiz,1),%esi
  402b40:	89 7d cc             	mov    %edi,-0x34(%ebp)
  402b43:	89 f7                	mov    %esi,%edi
  402b45:	8b 55 cc             	mov    -0x34(%ebp),%edx
  402b48:	b9 01 00 00 00       	mov    $0x1,%ecx
  402b4d:	0f b6 47 01          	movzbl 0x1(%edi),%eax
  402b51:	3c 7f                	cmp    $0x7f,%al
  402b53:	74 26                	je     402b7b <.text+0xabb>
  402b55:	83 c7 01             	add    $0x1,%edi
  402b58:	3c 7d                	cmp    $0x7d,%al
  402b5a:	74 09                	je     402b65 <.text+0xaa5>
  402b5c:	3c 2c                	cmp    $0x2c,%al
  402b5e:	75 40                	jne    402ba0 <.text+0xae0>
  402b60:	83 f9 01             	cmp    $0x1,%ecx
  402b63:	75 3b                	jne    402ba0 <.text+0xae0>
  402b65:	83 e9 01             	sub    $0x1,%ecx
  402b68:	0f 84 83 00 00 00    	je     402bf1 <.text+0xb31>
  402b6e:	88 02                	mov    %al,(%edx)
  402b70:	0f b6 47 01          	movzbl 0x1(%edi),%eax
  402b74:	83 c2 01             	add    $0x1,%edx
  402b77:	3c 7f                	cmp    $0x7f,%al
  402b79:	75 da                	jne    402b55 <.text+0xa95>
  402b7b:	0f b6 47 02          	movzbl 0x2(%edi),%eax
  402b7f:	c6 02 7f             	movb   $0x7f,(%edx)
  402b82:	8d 5a 02             	lea    0x2(%edx),%ebx
  402b85:	84 c0                	test   %al,%al
  402b87:	88 42 01             	mov    %al,0x1(%edx)
  402b8a:	75 34                	jne    402bc0 <.text+0xb00>
  402b8c:	c6 42 02 00          	movb   $0x0,0x2(%edx)
  402b90:	c7 45 cc 01 00 00 00 	movl   $0x1,-0x34(%ebp)
  402b97:	e9 0e 01 00 00       	jmp    402caa <.text+0xbea>
  402b9c:	8d 74 26 00          	lea    0x0(%esi,%eiz,1),%esi
  402ba0:	3c 7b                	cmp    $0x7b,%al
  402ba2:	74 2c                	je     402bd0 <.text+0xb10>
  402ba4:	84 c0                	test   %al,%al
  402ba6:	0f 95 45 d4          	setne  -0x2c(%ebp)
  402baa:	0f b6 5d d4          	movzbl -0x2c(%ebp),%ebx
  402bae:	84 db                	test   %bl,%bl
  402bb0:	8d 72 01             	lea    0x1(%edx),%esi
  402bb3:	88 02                	mov    %al,(%edx)
  402bb5:	0f 84 f9 03 00 00    	je     402fb4 <.text+0xef4>
  402bbb:	89 f2                	mov    %esi,%edx
  402bbd:	eb 8e                	jmp    402b4d <.text+0xa8d>
  402bbf:	90                   	nop
  402bc0:	0f b6 47 03          	movzbl 0x3(%edi),%eax
  402bc4:	89 da                	mov    %ebx,%edx
  402bc6:	83 c7 03             	add    $0x3,%edi
  402bc9:	eb 8d                	jmp    402b58 <.text+0xa98>
  402bcb:	90                   	nop
  402bcc:	8d 74 26 00          	lea    0x0(%esi,%eiz,1),%esi
  402bd0:	83 c1 01             	add    $0x1,%ecx
  402bd3:	bb 01 00 00 00       	mov    $0x1,%ebx
  402bd8:	c6 45 d4 01          	movb   $0x1,-0x2c(%ebp)
  402bdc:	eb d0                	jmp    402bae <.text+0xaee>
  402bde:	66 90                	xchg   %ax,%ax
  402be0:	88 47 01             	mov    %al,0x1(%edi)
  402be3:	83 c6 02             	add    $0x2,%esi
  402be6:	0f b6 06             	movzbl (%esi),%eax
  402be9:	83 c7 02             	add    $0x2,%edi
  402bec:	e9 08 ff ff ff       	jmp    402af9 <.text+0xa39>
  402bf1:	3c 2c                	cmp    $0x2c,%al
  402bf3:	0f 85 c1 00 00 00    	jne    402cba <.text+0xbfa>
  402bf9:	89 f8                	mov    %edi,%eax
  402bfb:	be 01 00 00 00       	mov    $0x1,%esi
  402c00:	0f b6 58 01          	movzbl 0x1(%eax),%ebx
  402c04:	8d 48 01             	lea    0x1(%eax),%ecx
  402c07:	80 fb 7f             	cmp    $0x7f,%bl
  402c0a:	0f 85 1f 01 00 00    	jne    402d2f <.text+0xc6f>
  402c10:	80 78 02 00          	cmpb   $0x0,0x2(%eax)
  402c14:	75 12                	jne    402c28 <.text+0xb68>
  402c16:	e9 85 00 00 00       	jmp    402ca0 <.text+0xbe0>
  402c1b:	90                   	nop
  402c1c:	8d 74 26 00          	lea    0x0(%esi,%eiz,1),%esi
  402c20:	80 78 01 00          	cmpb   $0x0,0x1(%eax)
  402c24:	74 7a                	je     402ca0 <.text+0xbe0>
  402c26:	89 c1                	mov    %eax,%ecx
  402c28:	0f b6 59 02          	movzbl 0x2(%ecx),%ebx
  402c2c:	8d 41 02             	lea    0x2(%ecx),%eax
  402c2f:	80 fb 7f             	cmp    $0x7f,%bl
  402c32:	74 ec                	je     402c20 <.text+0xb60>
  402c34:	80 fb 7b             	cmp    $0x7b,%bl
  402c37:	74 79                	je     402cb2 <.text+0xbf2>
  402c39:	80 fb 7d             	cmp    $0x7d,%bl
  402c3c:	75 55                	jne    402c93 <.text+0xbd3>
  402c3e:	83 ee 01             	sub    $0x1,%esi
  402c41:	75 bd                	jne    402c00 <.text+0xb40>
  402c43:	8d 48 01             	lea    0x1(%eax),%ecx
  402c46:	0f b6 40 01          	movzbl 0x1(%eax),%eax
  402c4a:	eb 07                	jmp    402c53 <.text+0xb93>
  402c4c:	8d 74 26 00          	lea    0x0(%esi,%eiz,1),%esi
  402c50:	0f b6 01             	movzbl (%ecx),%eax
  402c53:	83 c2 01             	add    $0x1,%edx
  402c56:	83 c1 01             	add    $0x1,%ecx
  402c59:	84 c0                	test   %al,%al
  402c5b:	88 42 ff             	mov    %al,-0x1(%edx)
  402c5e:	75 f0                	jne    402c50 <.text+0xb90>
  402c60:	8b 45 08             	mov    0x8(%ebp),%eax
  402c63:	89 04 24             	mov    %eax,(%esp)
  402c66:	8b 75 d0             	mov    -0x30(%ebp),%esi
  402c69:	8b 4d c4             	mov    -0x3c(%ebp),%ecx
  402c6c:	8b 45 c8             	mov    -0x38(%ebp),%eax
  402c6f:	89 f2                	mov    %esi,%edx
  402c71:	83 ce 01             	or     $0x1,%esi
  402c74:	e8 e7 fa ff ff       	call   402760 <.text+0x6a0>
  402c79:	83 f8 01             	cmp    $0x1,%eax
  402c7c:	89 75 d0             	mov    %esi,-0x30(%ebp)
  402c7f:	0f 84 0b ff ff ff    	je     402b90 <.text+0xad0>
  402c85:	80 3f 2c             	cmpb   $0x2c,(%edi)
  402c88:	0f 84 b7 fe ff ff    	je     402b45 <.text+0xa85>
  402c8e:	89 45 cc             	mov    %eax,-0x34(%ebp)
  402c91:	eb 17                	jmp    402caa <.text+0xbea>
  402c93:	84 db                	test   %bl,%bl
  402c95:	0f 85 65 ff ff ff    	jne    402c00 <.text+0xb40>
  402c9b:	90                   	nop
  402c9c:	8d 74 26 00          	lea    0x0(%esi,%eiz,1),%esi
  402ca0:	c6 02 00             	movb   $0x0,(%edx)
  402ca3:	c7 45 cc 01 00 00 00 	movl   $0x1,-0x34(%ebp)
  402caa:	8b 65 c0             	mov    -0x40(%ebp),%esp
  402cad:	e9 11 fe ff ff       	jmp    402ac3 <.text+0xa03>
  402cb2:	83 c6 01             	add    $0x1,%esi
  402cb5:	e9 46 ff ff ff       	jmp    402c00 <.text+0xb40>
  402cba:	89 f8                	mov    %edi,%eax
  402cbc:	eb 85                	jmp    402c43 <.text+0xb83>
  402cbe:	8b 45 d4             	mov    -0x2c(%ebp),%eax
  402cc1:	89 e6                	mov    %esp,%esi
  402cc3:	89 04 24             	mov    %eax,(%esp)
  402cc6:	e8 7d 0d 00 00       	call   403a48 <_strlen>
  402ccb:	83 c0 10             	add    $0x10,%eax
  402cce:	c1 e8 04             	shr    $0x4,%eax
  402cd1:	c1 e0 04             	shl    $0x4,%eax
  402cd4:	e8 47 f3 ff ff       	call   402020 <___chkstk_ms>
  402cd9:	8b 55 d4             	mov    -0x2c(%ebp),%edx
  402cdc:	29 c4                	sub    %eax,%esp
  402cde:	8d 7c 24 0c          	lea    0xc(%esp),%edi
  402ce2:	89 f9                	mov    %edi,%ecx
  402ce4:	eb 17                	jmp    402cfd <.text+0xc3d>
  402ce6:	8d 76 00             	lea    0x0(%esi),%esi
  402ce9:	8d bc 27 00 00 00 00 	lea    0x0(%edi,%eiz,1),%edi
  402cf0:	83 c1 01             	add    $0x1,%ecx
  402cf3:	83 c2 01             	add    $0x1,%edx
  402cf6:	84 c0                	test   %al,%al
  402cf8:	88 41 ff             	mov    %al,-0x1(%ecx)
  402cfb:	74 10                	je     402d0d <.text+0xc4d>
  402cfd:	0f b6 02             	movzbl (%edx),%eax
  402d00:	3c 7f                	cmp    $0x7f,%al
  402d02:	75 ec                	jne    402cf0 <.text+0xc30>
  402d04:	0f b6 42 01          	movzbl 0x1(%edx),%eax
  402d08:	83 c2 01             	add    $0x1,%edx
  402d0b:	eb e3                	jmp    402cf0 <.text+0xc30>
  402d0d:	89 3c 24             	mov    %edi,(%esp)
  402d10:	e8 6b 0e 00 00       	call   403b80 <_strdup>
  402d15:	85 c0                	test   %eax,%eax
  402d17:	89 f4                	mov    %esi,%esp
  402d19:	0f 84 97 fd ff ff    	je     402ab6 <.text+0x9f6>
  402d1f:	8d 55 d8             	lea    -0x28(%ebp),%edx
  402d22:	e8 89 f9 ff ff       	call   4026b0 <.text+0x5f0>
  402d27:	89 45 cc             	mov    %eax,-0x34(%ebp)
  402d2a:	e9 d0 fa ff ff       	jmp    4027ff <.text+0x73f>
  402d2f:	89 c8                	mov    %ecx,%eax
  402d31:	e9 fe fe ff ff       	jmp    402c34 <.text+0xb74>
  402d36:	f6 45 d0 10          	testb  $0x10,-0x30(%ebp)
  402d3a:	0f 85 da 01 00 00    	jne    402f1a <.text+0xe5a>
  402d40:	89 5d c8             	mov    %ebx,-0x38(%ebp)
  402d43:	c6 45 a3 5c          	movb   $0x5c,-0x5d(%ebp)
  402d47:	c7 45 a4 00 00 00 00 	movl   $0x0,-0x5c(%ebp)
  402d4e:	e9 73 fb ff ff       	jmp    4028c6 <.text+0x806>
  402d53:	89 3c 24             	mov    %edi,(%esp)
  402d56:	e8 75 0b 00 00       	call   4038d0 <___mingw_closedir>
  402d5b:	8b 55 b8             	mov    -0x48(%ebp),%edx
  402d5e:	85 d2                	test   %edx,%edx
  402d60:	74 0b                	je     402d6d <.text+0xcad>
  402d62:	8b 55 08             	mov    0x8(%ebp),%edx
  402d65:	8b 45 b8             	mov    -0x48(%ebp),%eax
  402d68:	e8 a3 f9 ff ff       	call   402710 <.text+0x650>
  402d6d:	8b 7d bc             	mov    -0x44(%ebp),%edi
  402d70:	8d 5f 04             	lea    0x4(%edi),%ebx
  402d73:	8b 43 fc             	mov    -0x4(%ebx),%eax
  402d76:	89 04 24             	mov    %eax,(%esp)
  402d79:	e8 12 0d 00 00       	call   403a90 <_free>
  402d7e:	8b 47 04             	mov    0x4(%edi),%eax
  402d81:	85 c0                	test   %eax,%eax
  402d83:	0f 84 12 01 00 00    	je     402e9b <.text+0xddb>
  402d89:	83 7d cc 01          	cmpl   $0x1,-0x34(%ebp)
  402d8d:	74 47                	je     402dd6 <.text+0xd16>
  402d8f:	89 5d bc             	mov    %ebx,-0x44(%ebp)
  402d92:	e9 52 fb ff ff       	jmp    4028e9 <.text+0x829>
  402d97:	89 f6                	mov    %esi,%esi
  402d99:	8d bc 27 00 00 00 00 	lea    0x0(%edi,%eiz,1),%edi
  402da0:	8b 4d 08             	mov    0x8(%ebp),%ecx
  402da3:	85 c9                	test   %ecx,%ecx
  402da5:	0f 85 c0 00 00 00    	jne    402e6b <.text+0xdab>
  402dab:	8b 65 b0             	mov    -0x50(%ebp),%esp
  402dae:	e9 7d fb ff ff       	jmp    402930 <.text+0x870>
  402db3:	f6 45 d0 04          	testb  $0x4,-0x30(%ebp)
  402db7:	0f 84 e9 00 00 00    	je     402ea6 <.text+0xde6>
  402dbd:	8b 7d bc             	mov    -0x44(%ebp),%edi
  402dc0:	8d 5f 04             	lea    0x4(%edi),%ebx
  402dc3:	89 f8                	mov    %edi,%eax
  402dc5:	8b 00                	mov    (%eax),%eax
  402dc7:	89 04 24             	mov    %eax,(%esp)
  402dca:	e8 c1 0c 00 00       	call   403a90 <_free>
  402dcf:	8b 47 04             	mov    0x4(%edi),%eax
  402dd2:	85 c0                	test   %eax,%eax
  402dd4:	74 17                	je     402ded <.text+0xd2d>
  402dd6:	8b 45 bc             	mov    -0x44(%ebp),%eax
  402dd9:	8b 40 04             	mov    0x4(%eax),%eax
  402ddc:	83 c3 04             	add    $0x4,%ebx
  402ddf:	89 04 24             	mov    %eax,(%esp)
  402de2:	e8 a9 0c 00 00       	call   403a90 <_free>
  402de7:	8b 03                	mov    (%ebx),%eax
  402de9:	85 c0                	test   %eax,%eax
  402deb:	75 ef                	jne    402ddc <.text+0xd1c>
  402ded:	8b 45 e0             	mov    -0x20(%ebp),%eax
  402df0:	c7 45 cc 01 00 00 00 	movl   $0x1,-0x34(%ebp)
  402df7:	89 45 bc             	mov    %eax,-0x44(%ebp)
  402dfa:	8b 45 bc             	mov    -0x44(%ebp),%eax
  402dfd:	89 04 24             	mov    %eax,(%esp)
  402e00:	e8 8b 0c 00 00       	call   403a90 <_free>
  402e05:	8b 65 a8             	mov    -0x58(%ebp),%esp
  402e08:	e9 b6 fc ff ff       	jmp    402ac3 <.text+0xa03>
  402e0d:	8d 76 00             	lea    0x0(%esi),%esi
  402e10:	8b 45 bc             	mov    -0x44(%ebp),%eax
  402e13:	89 55 b4             	mov    %edx,-0x4c(%ebp)
  402e16:	8b 55 c0             	mov    -0x40(%ebp),%edx
  402e19:	8b 00                	mov    (%eax),%eax
  402e1b:	89 34 24             	mov    %esi,(%esp)
  402e1e:	89 54 24 08          	mov    %edx,0x8(%esp)
  402e22:	89 44 24 04          	mov    %eax,0x4(%esp)
  402e26:	e8 45 0c 00 00       	call   403a70 <_memcpy>
  402e2b:	8b 4d c0             	mov    -0x40(%ebp),%ecx
  402e2e:	8b 55 b4             	mov    -0x4c(%ebp),%edx
  402e31:	0f b6 44 0c 0b       	movzbl 0xb(%esp,%ecx,1),%eax
  402e36:	3c 2f                	cmp    $0x2f,%al
  402e38:	74 26                	je     402e60 <.text+0xda0>
  402e3a:	3c 5c                	cmp    $0x5c,%al
  402e3c:	74 22                	je     402e60 <.text+0xda0>
  402e3e:	89 c8                	mov    %ecx,%eax
  402e40:	83 c0 01             	add    $0x1,%eax
  402e43:	89 45 b4             	mov    %eax,-0x4c(%ebp)
  402e46:	89 c8                	mov    %ecx,%eax
  402e48:	0f b6 4d a3          	movzbl -0x5d(%ebp),%ecx
  402e4c:	88 0c 06             	mov    %cl,(%esi,%eax,1)
  402e4f:	e9 40 fb ff ff       	jmp    402994 <.text+0x8d4>
  402e54:	c7 45 cc 03 00 00 00 	movl   $0x3,-0x34(%ebp)
  402e5b:	e9 4b ff ff ff       	jmp    402dab <.text+0xceb>
  402e60:	8b 45 c0             	mov    -0x40(%ebp),%eax
  402e63:	89 45 b4             	mov    %eax,-0x4c(%ebp)
  402e66:	e9 29 fb ff ff       	jmp    402994 <.text+0x8d4>
  402e6b:	8b 55 08             	mov    0x8(%ebp),%edx
  402e6e:	89 f0                	mov    %esi,%eax
  402e70:	e8 3b f8 ff ff       	call   4026b0 <.text+0x5f0>
  402e75:	e9 31 ff ff ff       	jmp    402dab <.text+0xceb>
  402e7a:	c7 45 c0 00 00 00 00 	movl   $0x0,-0x40(%ebp)
  402e81:	e9 90 fa ff ff       	jmp    402916 <.text+0x856>
  402e86:	89 03                	mov    %eax,(%ebx)
  402e88:	8b 5d b8             	mov    -0x48(%ebp),%ebx
  402e8b:	85 db                	test   %ebx,%ebx
  402e8d:	0f 85 18 ff ff ff    	jne    402dab <.text+0xceb>
  402e93:	89 45 b8             	mov    %eax,-0x48(%ebp)
  402e96:	e9 10 ff ff ff       	jmp    402dab <.text+0xceb>
  402e9b:	8b 45 e0             	mov    -0x20(%ebp),%eax
  402e9e:	89 45 bc             	mov    %eax,-0x44(%ebp)
  402ea1:	e9 54 ff ff ff       	jmp    402dfa <.text+0xd3a>
  402ea6:	8b 7d c4             	mov    -0x3c(%ebp),%edi
  402ea9:	85 ff                	test   %edi,%edi
  402eab:	0f 84 bc fe ff ff    	je     402d6d <.text+0xcad>
  402eb1:	e8 0a 0c 00 00       	call   403ac0 <__errno>
  402eb6:	8b 00                	mov    (%eax),%eax
  402eb8:	89 44 24 04          	mov    %eax,0x4(%esp)
  402ebc:	8b 75 bc             	mov    -0x44(%ebp),%esi
  402ebf:	8b 06                	mov    (%esi),%eax
  402ec1:	89 04 24             	mov    %eax,(%esp)
  402ec4:	ff d7                	call   *%edi
  402ec6:	85 c0                	test   %eax,%eax
  402ec8:	0f 84 9f fe ff ff    	je     402d6d <.text+0xcad>
  402ece:	89 f0                	mov    %esi,%eax
  402ed0:	8d 5e 04             	lea    0x4(%esi),%ebx
  402ed3:	89 f7                	mov    %esi,%edi
  402ed5:	e9 eb fe ff ff       	jmp    402dc5 <.text+0xd05>
  402eda:	89 55 c8             	mov    %edx,-0x38(%ebp)
  402edd:	88 4d a3             	mov    %cl,-0x5d(%ebp)
  402ee0:	e9 a4 f9 ff ff       	jmp    402889 <.text+0x7c9>
  402ee5:	c7 04 24 0c 00 00 00 	movl   $0xc,(%esp)
  402eec:	e8 8f 0b 00 00       	call   403a80 <_malloc>
  402ef1:	85 c0                	test   %eax,%eax
  402ef3:	0f 84 b2 fe ff ff    	je     402dab <.text+0xceb>
  402ef9:	89 70 08             	mov    %esi,0x8(%eax)
  402efc:	c7 40 04 00 00 00 00 	movl   $0x0,0x4(%eax)
  402f03:	c7 00 00 00 00 00    	movl   $0x0,(%eax)
  402f09:	eb 88                	jmp    402e93 <.text+0xdd3>
  402f0b:	8b 45 d4             	mov    -0x2c(%ebp),%eax
  402f0e:	c6 45 a3 5c          	movb   $0x5c,-0x5d(%ebp)
  402f12:	89 45 a4             	mov    %eax,-0x5c(%ebp)
  402f15:	e9 ac f9 ff ff       	jmp    4028c6 <.text+0x806>
  402f1a:	8b 55 d0             	mov    -0x30(%ebp),%edx
  402f1d:	89 d8                	mov    %ebx,%eax
  402f1f:	e8 9c f1 ff ff       	call   4020c0 <.text>
  402f24:	85 c0                	test   %eax,%eax
  402f26:	89 45 cc             	mov    %eax,-0x34(%ebp)
  402f29:	0f 85 11 fe ff ff    	jne    402d40 <.text+0xc80>
  402f2f:	89 1c 24             	mov    %ebx,(%esp)
  402f32:	89 e6                	mov    %esp,%esi
  402f34:	e8 0f 0b 00 00       	call   403a48 <_strlen>
  402f39:	83 c0 10             	add    $0x10,%eax
  402f3c:	c1 e8 04             	shr    $0x4,%eax
  402f3f:	c1 e0 04             	shl    $0x4,%eax
  402f42:	e8 d9 f0 ff ff       	call   402020 <___chkstk_ms>
  402f47:	29 c4                	sub    %eax,%esp
  402f49:	8d 4c 24 0c          	lea    0xc(%esp),%ecx
  402f4d:	89 ca                	mov    %ecx,%edx
  402f4f:	eb 0d                	jmp    402f5e <.text+0xe9e>
  402f51:	83 c2 01             	add    $0x1,%edx
  402f54:	83 c3 01             	add    $0x1,%ebx
  402f57:	84 c0                	test   %al,%al
  402f59:	88 42 ff             	mov    %al,-0x1(%edx)
  402f5c:	74 10                	je     402f6e <.text+0xeae>
  402f5e:	0f b6 03             	movzbl (%ebx),%eax
  402f61:	3c 7f                	cmp    $0x7f,%al
  402f63:	75 ec                	jne    402f51 <.text+0xe91>
  402f65:	0f b6 43 01          	movzbl 0x1(%ebx),%eax
  402f69:	83 c3 01             	add    $0x1,%ebx
  402f6c:	eb e3                	jmp    402f51 <.text+0xe91>
  402f6e:	89 0c 24             	mov    %ecx,(%esp)
  402f71:	e8 0a 0c 00 00       	call   403b80 <_strdup>
  402f76:	85 c0                	test   %eax,%eax
  402f78:	89 f4                	mov    %esi,%esp
  402f7a:	0f 84 1b ff ff ff    	je     402e9b <.text+0xddb>
  402f80:	8b 55 08             	mov    0x8(%ebp),%edx
  402f83:	85 d2                	test   %edx,%edx
  402f85:	0f 84 10 ff ff ff    	je     402e9b <.text+0xddb>
  402f8b:	8b 55 08             	mov    0x8(%ebp),%edx
  402f8e:	e8 1d f7 ff ff       	call   4026b0 <.text+0x5f0>
  402f93:	8b 45 e0             	mov    -0x20(%ebp),%eax
  402f96:	89 45 bc             	mov    %eax,-0x44(%ebp)
  402f99:	e9 5c fe ff ff       	jmp    402dfa <.text+0xd3a>
  402f9e:	89 45 c8             	mov    %eax,-0x38(%ebp)
  402fa1:	e9 e3 f8 ff ff       	jmp    402889 <.text+0x7c9>
  402fa6:	0f b6 18             	movzbl (%eax),%ebx
  402fa9:	89 45 c8             	mov    %eax,-0x38(%ebp)
  402fac:	88 5d a3             	mov    %bl,-0x5d(%ebp)
  402faf:	e9 d5 f8 ff ff       	jmp    402889 <.text+0x7c9>
  402fb4:	80 7d d4 00          	cmpb   $0x0,-0x2c(%ebp)
  402fb8:	0f 84 d2 fb ff ff    	je     402b90 <.text+0xad0>
  402fbe:	3c 2c                	cmp    $0x2c,%al
  402fc0:	89 f2                	mov    %esi,%edx
  402fc2:	0f 85 d8 fc ff ff    	jne    402ca0 <.text+0xbe0>
  402fc8:	e9 2c fc ff ff       	jmp    402bf9 <.text+0xb39>
  402fcd:	3c 7b                	cmp    $0x7b,%al
  402fcf:	74 08                	je     402fd9 <.text+0xf19>
  402fd1:	8b 65 c0             	mov    -0x40(%ebp),%esp
  402fd4:	e9 a1 f7 ff ff       	jmp    40277a <.text+0x6ba>
  402fd9:	89 55 cc             	mov    %edx,-0x34(%ebp)
  402fdc:	89 cf                	mov    %ecx,%edi
  402fde:	e9 62 fb ff ff       	jmp    402b45 <.text+0xa85>
  402fe3:	8d b6 00 00 00 00    	lea    0x0(%esi),%esi
  402fe9:	8d bc 27 00 00 00 00 	lea    0x0(%edi,%eiz,1),%edi

00402ff0 <___mingw_glob>:
  402ff0:	55                   	push   %ebp
  402ff1:	89 e5                	mov    %esp,%ebp
  402ff3:	57                   	push   %edi
  402ff4:	56                   	push   %esi
  402ff5:	53                   	push   %ebx
  402ff6:	83 ec 2c             	sub    $0x2c,%esp
  402ff9:	8b 75 14             	mov    0x14(%ebp),%esi
  402ffc:	8b 5d 08             	mov    0x8(%ebp),%ebx
  402fff:	8b 7d 0c             	mov    0xc(%ebp),%edi
  403002:	85 f6                	test   %esi,%esi
  403004:	74 08                	je     40300e <___mingw_glob+0x1e>
  403006:	f7 c7 02 00 00 00    	test   $0x2,%edi
  40300c:	74 35                	je     403043 <___mingw_glob+0x53>
  40300e:	81 3e 16 51 40 00    	cmpl   $0x405116,(%esi)
  403014:	74 0d                	je     403023 <___mingw_glob+0x33>
  403016:	89 f0                	mov    %esi,%eax
  403018:	e8 43 f1 ff ff       	call   402160 <.text+0xa0>
  40301d:	c7 06 16 51 40 00    	movl   $0x405116,(%esi)
  403023:	89 34 24             	mov    %esi,(%esp)
  403026:	8b 4d 10             	mov    0x10(%ebp),%ecx
  403029:	89 fa                	mov    %edi,%edx
  40302b:	89 d8                	mov    %ebx,%eax
  40302d:	e8 2e f7 ff ff       	call   402760 <.text+0x6a0>
  403032:	83 f8 02             	cmp    $0x2,%eax
  403035:	89 c1                	mov    %eax,%ecx
  403037:	74 17                	je     403050 <___mingw_glob+0x60>
  403039:	8d 65 f4             	lea    -0xc(%ebp),%esp
  40303c:	89 c8                	mov    %ecx,%eax
  40303e:	5b                   	pop    %ebx
  40303f:	5e                   	pop    %esi
  403040:	5f                   	pop    %edi
  403041:	5d                   	pop    %ebp
  403042:	c3                   	ret    
  403043:	c7 46 0c 00 00 00 00 	movl   $0x0,0xc(%esi)
  40304a:	eb c2                	jmp    40300e <___mingw_glob+0x1e>
  40304c:	8d 74 26 00          	lea    0x0(%esi,%eiz,1),%esi
  403050:	83 e7 10             	and    $0x10,%edi
  403053:	74 e4                	je     403039 <___mingw_glob+0x49>
  403055:	89 45 e0             	mov    %eax,-0x20(%ebp)
  403058:	89 65 e4             	mov    %esp,-0x1c(%ebp)
  40305b:	89 1c 24             	mov    %ebx,(%esp)
  40305e:	e8 e5 09 00 00       	call   403a48 <_strlen>
  403063:	83 c0 10             	add    $0x10,%eax
  403066:	c1 e8 04             	shr    $0x4,%eax
  403069:	c1 e0 04             	shl    $0x4,%eax
  40306c:	e8 af ef ff ff       	call   402020 <___chkstk_ms>
  403071:	8b 4d e0             	mov    -0x20(%ebp),%ecx
  403074:	29 c4                	sub    %eax,%esp
  403076:	8d 7c 24 04          	lea    0x4(%esp),%edi
  40307a:	89 fa                	mov    %edi,%edx
  40307c:	eb 0f                	jmp    40308d <___mingw_glob+0x9d>
  40307e:	66 90                	xchg   %ax,%ax
  403080:	83 c2 01             	add    $0x1,%edx
  403083:	83 c3 01             	add    $0x1,%ebx
  403086:	84 c0                	test   %al,%al
  403088:	88 42 ff             	mov    %al,-0x1(%edx)
  40308b:	74 1b                	je     4030a8 <___mingw_glob+0xb8>
  40308d:	0f b6 03             	movzbl (%ebx),%eax
  403090:	3c 7f                	cmp    $0x7f,%al
  403092:	75 ec                	jne    403080 <___mingw_glob+0x90>
  403094:	0f b6 43 01          	movzbl 0x1(%ebx),%eax
  403098:	83 c3 01             	add    $0x1,%ebx
  40309b:	83 c2 01             	add    $0x1,%edx
  40309e:	83 c3 01             	add    $0x1,%ebx
  4030a1:	84 c0                	test   %al,%al
  4030a3:	88 42 ff             	mov    %al,-0x1(%edx)
  4030a6:	75 e5                	jne    40308d <___mingw_glob+0x9d>
  4030a8:	89 4d e0             	mov    %ecx,-0x20(%ebp)
  4030ab:	89 3c 24             	mov    %edi,(%esp)
  4030ae:	e8 cd 0a 00 00       	call   403b80 <_strdup>
  4030b3:	85 c0                	test   %eax,%eax
  4030b5:	8b 65 e4             	mov    -0x1c(%ebp),%esp
  4030b8:	8b 4d e0             	mov    -0x20(%ebp),%ecx
  4030bb:	0f 84 78 ff ff ff    	je     403039 <___mingw_glob+0x49>
  4030c1:	89 f2                	mov    %esi,%edx
  4030c3:	89 4d e4             	mov    %ecx,-0x1c(%ebp)
  4030c6:	e8 e5 f5 ff ff       	call   4026b0 <.text+0x5f0>
  4030cb:	8b 4d e4             	mov    -0x1c(%ebp),%ecx
  4030ce:	e9 66 ff ff ff       	jmp    403039 <___mingw_glob+0x49>
  4030d3:	8d b6 00 00 00 00    	lea    0x0(%esi),%esi
  4030d9:	8d bc 27 00 00 00 00 	lea    0x0(%edi,%eiz,1),%edi

004030e0 <___mingw_globfree>:
  4030e0:	57                   	push   %edi
  4030e1:	56                   	push   %esi
  4030e2:	53                   	push   %ebx
  4030e3:	83 ec 10             	sub    $0x10,%esp
  4030e6:	8b 74 24 20          	mov    0x20(%esp),%esi
  4030ea:	81 3e 16 51 40 00    	cmpl   $0x405116,(%esi)
  4030f0:	74 0e                	je     403100 <___mingw_globfree+0x20>
  4030f2:	83 c4 10             	add    $0x10,%esp
  4030f5:	5b                   	pop    %ebx
  4030f6:	5e                   	pop    %esi
  4030f7:	5f                   	pop    %edi
  4030f8:	c3                   	ret    
  4030f9:	8d b4 26 00 00 00 00 	lea    0x0(%esi,%eiz,1),%esi
  403100:	8b 46 04             	mov    0x4(%esi),%eax
  403103:	8b 56 0c             	mov    0xc(%esi),%edx
  403106:	85 c0                	test   %eax,%eax
  403108:	8d 78 ff             	lea    -0x1(%eax),%edi
  40310b:	8d 1c 95 00 00 00 00 	lea    0x0(,%edx,4),%ebx
  403112:	7e 19                	jle    40312d <___mingw_globfree+0x4d>
  403114:	8b 46 08             	mov    0x8(%esi),%eax
  403117:	83 ef 01             	sub    $0x1,%edi
  40311a:	8b 04 18             	mov    (%eax,%ebx,1),%eax
  40311d:	83 c3 04             	add    $0x4,%ebx
  403120:	89 04 24             	mov    %eax,(%esp)
  403123:	e8 68 09 00 00       	call   403a90 <_free>
  403128:	83 ff ff             	cmp    $0xffffffff,%edi
  40312b:	75 e7                	jne    403114 <___mingw_globfree+0x34>
  40312d:	8b 46 08             	mov    0x8(%esi),%eax
  403130:	89 44 24 20          	mov    %eax,0x20(%esp)
  403134:	83 c4 10             	add    $0x10,%esp
  403137:	5b                   	pop    %ebx
  403138:	5e                   	pop    %esi
  403139:	5f                   	pop    %edi
  40313a:	e9 51 09 00 00       	jmp    403a90 <_free>
  40313f:	90                   	nop

00403140 <___mingw_dirname>:
  403140:	55                   	push   %ebp
  403141:	89 e5                	mov    %esp,%ebp
  403143:	57                   	push   %edi
  403144:	56                   	push   %esi
  403145:	53                   	push   %ebx
  403146:	83 ec 2c             	sub    $0x2c,%esp
  403149:	c7 44 24 04 00 00 00 	movl   $0x0,0x4(%esp)
  403150:	00 
  403151:	c7 04 24 02 00 00 00 	movl   $0x2,(%esp)
  403158:	e8 03 09 00 00       	call   403a60 <_setlocale>
  40315d:	85 c0                	test   %eax,%eax
  40315f:	89 c3                	mov    %eax,%ebx
  403161:	74 0a                	je     40316d <___mingw_dirname+0x2d>
  403163:	89 04 24             	mov    %eax,(%esp)
  403166:	e8 15 0a 00 00       	call   403b80 <_strdup>
  40316b:	89 c3                	mov    %eax,%ebx
  40316d:	c7 44 24 04 28 51 40 	movl   $0x405128,0x4(%esp)
  403174:	00 
  403175:	c7 04 24 02 00 00 00 	movl   $0x2,(%esp)
  40317c:	e8 df 08 00 00       	call   403a60 <_setlocale>
  403181:	8b 75 08             	mov    0x8(%ebp),%esi
  403184:	85 f6                	test   %esi,%esi
  403186:	74 08                	je     403190 <___mingw_dirname+0x50>
  403188:	8b 45 08             	mov    0x8(%ebp),%eax
  40318b:	80 38 00             	cmpb   $0x0,(%eax)
  40318e:	75 71                	jne    403201 <___mingw_dirname+0xc1>
  403190:	c7 44 24 08 00 00 00 	movl   $0x0,0x8(%esp)
  403197:	00 
  403198:	c7 44 24 04 2a 51 40 	movl   $0x40512a,0x4(%esp)
  40319f:	00 
  4031a0:	c7 04 24 00 00 00 00 	movl   $0x0,(%esp)
  4031a7:	e8 84 08 00 00       	call   403a30 <_wcstombs>
  4031ac:	8d 70 01             	lea    0x1(%eax),%esi
  4031af:	89 74 24 04          	mov    %esi,0x4(%esp)
  4031b3:	a1 68 70 40 00       	mov    0x407068,%eax
  4031b8:	89 04 24             	mov    %eax,(%esp)
  4031bb:	e8 a8 08 00 00       	call   403a68 <_realloc>
  4031c0:	a3 68 70 40 00       	mov    %eax,0x407068
  4031c5:	89 74 24 08          	mov    %esi,0x8(%esp)
  4031c9:	c7 44 24 04 2a 51 40 	movl   $0x40512a,0x4(%esp)
  4031d0:	00 
  4031d1:	89 04 24             	mov    %eax,(%esp)
  4031d4:	e8 57 08 00 00       	call   403a30 <_wcstombs>
  4031d9:	89 5c 24 04          	mov    %ebx,0x4(%esp)
  4031dd:	c7 04 24 02 00 00 00 	movl   $0x2,(%esp)
  4031e4:	e8 77 08 00 00       	call   403a60 <_setlocale>
  4031e9:	89 1c 24             	mov    %ebx,(%esp)
  4031ec:	e8 9f 08 00 00       	call   403a90 <_free>
  4031f1:	8b 35 68 70 40 00    	mov    0x407068,%esi
  4031f7:	8d 65 f4             	lea    -0xc(%ebp),%esp
  4031fa:	5b                   	pop    %ebx
  4031fb:	89 f0                	mov    %esi,%eax
  4031fd:	5e                   	pop    %esi
  4031fe:	5f                   	pop    %edi
  4031ff:	5d                   	pop    %ebp
  403200:	c3                   	ret    
  403201:	89 65 dc             	mov    %esp,-0x24(%ebp)
  403204:	c7 44 24 08 00 00 00 	movl   $0x0,0x8(%esp)
  40320b:	00 
  40320c:	8b 45 08             	mov    0x8(%ebp),%eax
  40320f:	c7 04 24 00 00 00 00 	movl   $0x0,(%esp)
  403216:	89 44 24 04          	mov    %eax,0x4(%esp)
  40321a:	e8 59 08 00 00       	call   403a78 <_mbstowcs>
  40321f:	89 c2                	mov    %eax,%edx
  403221:	8d 44 00 12          	lea    0x12(%eax,%eax,1),%eax
  403225:	c1 e8 04             	shr    $0x4,%eax
  403228:	c1 e0 04             	shl    $0x4,%eax
  40322b:	e8 f0 ed ff ff       	call   402020 <___chkstk_ms>
  403230:	29 c4                	sub    %eax,%esp
  403232:	89 54 24 08          	mov    %edx,0x8(%esp)
  403236:	8b 45 08             	mov    0x8(%ebp),%eax
  403239:	8d 7c 24 0c          	lea    0xc(%esp),%edi
  40323d:	89 3c 24             	mov    %edi,(%esp)
  403240:	89 44 24 04          	mov    %eax,0x4(%esp)
  403244:	e8 2f 08 00 00       	call   403a78 <_mbstowcs>
  403249:	31 c9                	xor    %ecx,%ecx
  40324b:	89 45 d8             	mov    %eax,-0x28(%ebp)
  40324e:	83 f8 01             	cmp    $0x1,%eax
  403251:	66 89 0c 47          	mov    %cx,(%edi,%eax,2)
  403255:	0f b7 07             	movzwl (%edi),%eax
  403258:	89 7d e4             	mov    %edi,-0x1c(%ebp)
  40325b:	66 89 45 e2          	mov    %ax,-0x1e(%ebp)
  40325f:	76 1f                	jbe    403280 <___mingw_dirname+0x140>
  403261:	66 83 f8 2f          	cmp    $0x2f,%ax
  403265:	0f 84 1c 02 00 00    	je     403487 <___mingw_dirname+0x347>
  40326b:	66 83 f8 5c          	cmp    $0x5c,%ax
  40326f:	0f 84 12 02 00 00    	je     403487 <___mingw_dirname+0x347>
  403275:	66 83 7f 02 3a       	cmpw   $0x3a,0x2(%edi)
  40327a:	0f 84 4f 02 00 00    	je     4034cf <___mingw_dirname+0x38f>
  403280:	0f b7 45 e2          	movzwl -0x1e(%ebp),%eax
  403284:	66 85 c0             	test   %ax,%ax
  403287:	0f 84 e1 00 00 00    	je     40336e <___mingw_dirname+0x22e>
  40328d:	8b 4d e4             	mov    -0x1c(%ebp),%ecx
  403290:	89 c2                	mov    %eax,%edx
  403292:	89 ce                	mov    %ecx,%esi
  403294:	eb 1e                	jmp    4032b4 <___mingw_dirname+0x174>
  403296:	8d 76 00             	lea    0x0(%esi),%esi
  403299:	8d bc 27 00 00 00 00 	lea    0x0(%edi,%eiz,1),%edi
  4032a0:	66 83 fa 5c          	cmp    $0x5c,%dx
  4032a4:	89 c8                	mov    %ecx,%eax
  4032a6:	74 12                	je     4032ba <___mingw_dirname+0x17a>
  4032a8:	0f b7 50 02          	movzwl 0x2(%eax),%edx
  4032ac:	8d 48 02             	lea    0x2(%eax),%ecx
  4032af:	66 85 d2             	test   %dx,%dx
  4032b2:	74 36                	je     4032ea <___mingw_dirname+0x1aa>
  4032b4:	66 83 fa 2f          	cmp    $0x2f,%dx
  4032b8:	75 e6                	jne    4032a0 <___mingw_dirname+0x160>
  4032ba:	0f b7 11             	movzwl (%ecx),%edx
  4032bd:	89 c8                	mov    %ecx,%eax
  4032bf:	66 83 fa 2f          	cmp    $0x2f,%dx
  4032c3:	75 0c                	jne    4032d1 <___mingw_dirname+0x191>
  4032c5:	83 c0 02             	add    $0x2,%eax
  4032c8:	0f b7 10             	movzwl (%eax),%edx
  4032cb:	66 83 fa 2f          	cmp    $0x2f,%dx
  4032cf:	74 f4                	je     4032c5 <___mingw_dirname+0x185>
  4032d1:	66 83 fa 5c          	cmp    $0x5c,%dx
  4032d5:	74 ee                	je     4032c5 <___mingw_dirname+0x185>
  4032d7:	66 85 d2             	test   %dx,%dx
  4032da:	74 0e                	je     4032ea <___mingw_dirname+0x1aa>
  4032dc:	0f b7 50 02          	movzwl 0x2(%eax),%edx
  4032e0:	89 c6                	mov    %eax,%esi
  4032e2:	8d 48 02             	lea    0x2(%eax),%ecx
  4032e5:	66 85 d2             	test   %dx,%dx
  4032e8:	75 ca                	jne    4032b4 <___mingw_dirname+0x174>
  4032ea:	39 75 e4             	cmp    %esi,-0x1c(%ebp)
  4032ed:	0f 82 8d 00 00 00    	jb     403380 <___mingw_dirname+0x240>
  4032f3:	0f b7 45 e2          	movzwl -0x1e(%ebp),%eax
  4032f7:	66 83 f8 2f          	cmp    $0x2f,%ax
  4032fb:	0f 84 e1 01 00 00    	je     4034e2 <___mingw_dirname+0x3a2>
  403301:	66 83 f8 5c          	cmp    $0x5c,%ax
  403305:	0f 84 d7 01 00 00    	je     4034e2 <___mingw_dirname+0x3a2>
  40330b:	8b 75 e4             	mov    -0x1c(%ebp),%esi
  40330e:	b9 2e 00 00 00       	mov    $0x2e,%ecx
  403313:	89 f0                	mov    %esi,%eax
  403315:	66 89 0e             	mov    %cx,(%esi)
  403318:	83 c0 02             	add    $0x2,%eax
  40331b:	31 d2                	xor    %edx,%edx
  40331d:	66 89 10             	mov    %dx,(%eax)
  403320:	c7 44 24 08 00 00 00 	movl   $0x0,0x8(%esp)
  403327:	00 
  403328:	89 7c 24 04          	mov    %edi,0x4(%esp)
  40332c:	c7 04 24 00 00 00 00 	movl   $0x0,(%esp)
  403333:	e8 f8 06 00 00       	call   403a30 <_wcstombs>
  403338:	8d 50 01             	lea    0x1(%eax),%edx
  40333b:	89 54 24 04          	mov    %edx,0x4(%esp)
  40333f:	a1 68 70 40 00       	mov    0x407068,%eax
  403344:	89 55 e4             	mov    %edx,-0x1c(%ebp)
  403347:	89 04 24             	mov    %eax,(%esp)
  40334a:	e8 19 07 00 00       	call   403a68 <_realloc>
  40334f:	8b 55 e4             	mov    -0x1c(%ebp),%edx
  403352:	a3 68 70 40 00       	mov    %eax,0x407068
  403357:	89 c6                	mov    %eax,%esi
  403359:	89 7c 24 04          	mov    %edi,0x4(%esp)
  40335d:	89 04 24             	mov    %eax,(%esp)
  403360:	89 54 24 08          	mov    %edx,0x8(%esp)
  403364:	e8 c7 06 00 00       	call   403a30 <_wcstombs>
  403369:	e9 c2 00 00 00       	jmp    403430 <___mingw_dirname+0x2f0>
  40336e:	8b 65 dc             	mov    -0x24(%ebp),%esp
  403371:	e9 1a fe ff ff       	jmp    403190 <___mingw_dirname+0x50>
  403376:	8d 76 00             	lea    0x0(%esi),%esi
  403379:	8d bc 27 00 00 00 00 	lea    0x0(%edi,%eiz,1),%edi
  403380:	8d 46 fe             	lea    -0x2(%esi),%eax
  403383:	39 45 e4             	cmp    %eax,-0x1c(%ebp)
  403386:	0f 83 61 01 00 00    	jae    4034ed <___mingw_dirname+0x3ad>
  40338c:	0f b7 56 fe          	movzwl -0x2(%esi),%edx
  403390:	89 c6                	mov    %eax,%esi
  403392:	66 83 fa 2f          	cmp    $0x2f,%dx
  403396:	74 e8                	je     403380 <___mingw_dirname+0x240>
  403398:	66 83 fa 5c          	cmp    $0x5c,%dx
  40339c:	74 e2                	je     403380 <___mingw_dirname+0x240>
  40339e:	31 d2                	xor    %edx,%edx
  4033a0:	89 f9                	mov    %edi,%ecx
  4033a2:	66 89 50 02          	mov    %dx,0x2(%eax)
  4033a6:	0f b7 17             	movzwl (%edi),%edx
  4033a9:	66 83 fa 2f          	cmp    $0x2f,%dx
  4033ad:	74 11                	je     4033c0 <___mingw_dirname+0x280>
  4033af:	66 83 fa 5c          	cmp    $0x5c,%dx
  4033b3:	0f 85 04 01 00 00    	jne    4034bd <___mingw_dirname+0x37d>
  4033b9:	8d b4 26 00 00 00 00 	lea    0x0(%esi,%eiz,1),%esi
  4033c0:	83 c1 02             	add    $0x2,%ecx
  4033c3:	0f b7 01             	movzwl (%ecx),%eax
  4033c6:	66 83 f8 2f          	cmp    $0x2f,%ax
  4033ca:	74 f4                	je     4033c0 <___mingw_dirname+0x280>
  4033cc:	66 83 f8 5c          	cmp    $0x5c,%ax
  4033d0:	74 ee                	je     4033c0 <___mingw_dirname+0x280>
  4033d2:	89 c8                	mov    %ecx,%eax
  4033d4:	29 f8                	sub    %edi,%eax
  4033d6:	83 f8 05             	cmp    $0x5,%eax
  4033d9:	0f 8e de 00 00 00    	jle    4034bd <___mingw_dirname+0x37d>
  4033df:	89 f9                	mov    %edi,%ecx
  4033e1:	89 c8                	mov    %ecx,%eax
  4033e3:	66 85 d2             	test   %dx,%dx
  4033e6:	74 21                	je     403409 <___mingw_dirname+0x2c9>
  4033e8:	83 c1 02             	add    $0x2,%ecx
  4033eb:	66 83 fa 2f          	cmp    $0x2f,%dx
  4033ef:	66 89 51 fe          	mov    %dx,-0x2(%ecx)
  4033f3:	74 62                	je     403457 <___mingw_dirname+0x317>
  4033f5:	66 83 38 5c          	cmpw   $0x5c,(%eax)
  4033f9:	8d 70 02             	lea    0x2(%eax),%esi
  4033fc:	74 57                	je     403455 <___mingw_dirname+0x315>
  4033fe:	0f b7 50 02          	movzwl 0x2(%eax),%edx
  403402:	89 f0                	mov    %esi,%eax
  403404:	66 85 d2             	test   %dx,%dx
  403407:	75 df                	jne    4033e8 <___mingw_dirname+0x2a8>
  403409:	8b 45 d8             	mov    -0x28(%ebp),%eax
  40340c:	31 f6                	xor    %esi,%esi
  40340e:	66 89 31             	mov    %si,(%ecx)
  403411:	89 7c 24 04          	mov    %edi,0x4(%esp)
  403415:	89 44 24 08          	mov    %eax,0x8(%esp)
  403419:	8b 45 08             	mov    0x8(%ebp),%eax
  40341c:	89 04 24             	mov    %eax,(%esp)
  40341f:	e8 0c 06 00 00       	call   403a30 <_wcstombs>
  403424:	83 f8 ff             	cmp    $0xffffffff,%eax
  403427:	8b 75 08             	mov    0x8(%ebp),%esi
  40342a:	74 04                	je     403430 <___mingw_dirname+0x2f0>
  40342c:	c6 04 06 00          	movb   $0x0,(%esi,%eax,1)
  403430:	89 5c 24 04          	mov    %ebx,0x4(%esp)
  403434:	c7 04 24 02 00 00 00 	movl   $0x2,(%esp)
  40343b:	e8 20 06 00 00       	call   403a60 <_setlocale>
  403440:	89 1c 24             	mov    %ebx,(%esp)
  403443:	e8 48 06 00 00       	call   403a90 <_free>
  403448:	8b 65 dc             	mov    -0x24(%ebp),%esp
  40344b:	8d 65 f4             	lea    -0xc(%ebp),%esp
  40344e:	89 f0                	mov    %esi,%eax
  403450:	5b                   	pop    %ebx
  403451:	5e                   	pop    %esi
  403452:	5f                   	pop    %edi
  403453:	5d                   	pop    %ebp
  403454:	c3                   	ret    
  403455:	89 f0                	mov    %esi,%eax
  403457:	0f b7 10             	movzwl (%eax),%edx
  40345a:	66 83 fa 5c          	cmp    $0x5c,%dx
  40345e:	74 10                	je     403470 <___mingw_dirname+0x330>
  403460:	66 83 fa 2f          	cmp    $0x2f,%dx
  403464:	0f 85 79 ff ff ff    	jne    4033e3 <___mingw_dirname+0x2a3>
  40346a:	8d b6 00 00 00 00    	lea    0x0(%esi),%esi
  403470:	83 c0 02             	add    $0x2,%eax
  403473:	0f b7 10             	movzwl (%eax),%edx
  403476:	66 83 fa 2f          	cmp    $0x2f,%dx
  40347a:	74 f4                	je     403470 <___mingw_dirname+0x330>
  40347c:	66 83 fa 5c          	cmp    $0x5c,%dx
  403480:	74 ee                	je     403470 <___mingw_dirname+0x330>
  403482:	e9 5c ff ff ff       	jmp    4033e3 <___mingw_dirname+0x2a3>
  403487:	0f b7 45 e2          	movzwl -0x1e(%ebp),%eax
  40348b:	66 3b 47 02          	cmp    0x2(%edi),%ax
  40348f:	0f 85 eb fd ff ff    	jne    403280 <___mingw_dirname+0x140>
  403495:	66 83 7f 04 00       	cmpw   $0x0,0x4(%edi)
  40349a:	0f 85 e0 fd ff ff    	jne    403280 <___mingw_dirname+0x140>
  4034a0:	89 5c 24 04          	mov    %ebx,0x4(%esp)
  4034a4:	c7 04 24 02 00 00 00 	movl   $0x2,(%esp)
  4034ab:	e8 b0 05 00 00       	call   403a60 <_setlocale>
  4034b0:	89 1c 24             	mov    %ebx,(%esp)
  4034b3:	e8 d8 05 00 00       	call   403a90 <_free>
  4034b8:	8b 75 08             	mov    0x8(%ebp),%esi
  4034bb:	eb 8b                	jmp    403448 <___mingw_dirname+0x308>
  4034bd:	66 39 57 02          	cmp    %dx,0x2(%edi)
  4034c1:	0f 85 18 ff ff ff    	jne    4033df <___mingw_dirname+0x29f>
  4034c7:	0f b7 11             	movzwl (%ecx),%edx
  4034ca:	e9 12 ff ff ff       	jmp    4033e1 <___mingw_dirname+0x2a1>
  4034cf:	8d 47 04             	lea    0x4(%edi),%eax
  4034d2:	89 45 e4             	mov    %eax,-0x1c(%ebp)
  4034d5:	0f b7 47 04          	movzwl 0x4(%edi),%eax
  4034d9:	66 89 45 e2          	mov    %ax,-0x1e(%ebp)
  4034dd:	e9 9e fd ff ff       	jmp    403280 <___mingw_dirname+0x140>
  4034e2:	8b 45 e4             	mov    -0x1c(%ebp),%eax
  4034e5:	83 c0 02             	add    $0x2,%eax
  4034e8:	e9 2e fe ff ff       	jmp    40331b <___mingw_dirname+0x1db>
  4034ed:	0f 85 ab fe ff ff    	jne    40339e <___mingw_dirname+0x25e>
  4034f3:	0f b7 4d e2          	movzwl -0x1e(%ebp),%ecx
  4034f7:	66 83 f9 2f          	cmp    $0x2f,%cx
  4034fb:	74 0a                	je     403507 <___mingw_dirname+0x3c7>
  4034fd:	66 83 f9 5c          	cmp    $0x5c,%cx
  403501:	0f 85 97 fe ff ff    	jne    40339e <___mingw_dirname+0x25e>
  403507:	0f b7 4d e2          	movzwl -0x1e(%ebp),%ecx
  40350b:	66 39 48 02          	cmp    %cx,0x2(%eax)
  40350f:	0f 85 89 fe ff ff    	jne    40339e <___mingw_dirname+0x25e>
  403515:	0f b7 50 04          	movzwl 0x4(%eax),%edx
  403519:	66 83 fa 2f          	cmp    $0x2f,%dx
  40351d:	0f 84 7b fe ff ff    	je     40339e <___mingw_dirname+0x25e>
  403523:	66 83 fa 5c          	cmp    $0x5c,%dx
  403527:	0f 84 71 fe ff ff    	je     40339e <___mingw_dirname+0x25e>
  40352d:	89 f0                	mov    %esi,%eax
  40352f:	e9 6a fe ff ff       	jmp    40339e <___mingw_dirname+0x25e>
  403534:	90                   	nop
  403535:	90                   	nop
  403536:	90                   	nop
  403537:	90                   	nop
  403538:	90                   	nop
  403539:	90                   	nop
  40353a:	90                   	nop
  40353b:	90                   	nop
  40353c:	90                   	nop
  40353d:	90                   	nop
  40353e:	90                   	nop
  40353f:	90                   	nop

00403540 <.text>:
  403540:	56                   	push   %esi
  403541:	53                   	push   %ebx
  403542:	89 d3                	mov    %edx,%ebx
  403544:	81 ec 54 01 00 00    	sub    $0x154,%esp
  40354a:	8d 54 24 10          	lea    0x10(%esp),%edx
  40354e:	89 04 24             	mov    %eax,(%esp)
  403551:	89 54 24 04          	mov    %edx,0x4(%esp)
  403555:	e8 f6 05 00 00       	call   403b50 <_FindFirstFileA@8>
  40355a:	83 ec 08             	sub    $0x8,%esp
  40355d:	83 f8 ff             	cmp    $0xffffffff,%eax
  403560:	89 c6                	mov    %eax,%esi
  403562:	74 5a                	je     4035be <.text+0x7e>
  403564:	31 c0                	xor    %eax,%eax
  403566:	8d 4b 0c             	lea    0xc(%ebx),%ecx
  403569:	66 89 43 06          	mov    %ax,0x6(%ebx)
  40356d:	31 c0                	xor    %eax,%eax
  40356f:	eb 12                	jmp    403583 <.text+0x43>
  403571:	0f b7 43 06          	movzwl 0x6(%ebx),%eax
  403575:	83 c0 01             	add    $0x1,%eax
  403578:	66 3d 04 01          	cmp    $0x104,%ax
  40357c:	66 89 43 06          	mov    %ax,0x6(%ebx)
  403580:	83 d1 00             	adc    $0x0,%ecx
  403583:	0f b7 c0             	movzwl %ax,%eax
  403586:	0f b6 44 04 3c       	movzbl 0x3c(%esp,%eax,1),%eax
  40358b:	84 c0                	test   %al,%al
  40358d:	88 01                	mov    %al,(%ecx)
  40358f:	75 e0                	jne    403571 <.text+0x31>
  403591:	8b 44 24 10          	mov    0x10(%esp),%eax
  403595:	24 58                	and    $0x58,%al
  403597:	83 f8 10             	cmp    $0x10,%eax
  40359a:	76 14                	jbe    4035b0 <.text+0x70>
  40359c:	c7 43 08 18 00 00 00 	movl   $0x18,0x8(%ebx)
  4035a3:	81 c4 54 01 00 00    	add    $0x154,%esp
  4035a9:	89 f0                	mov    %esi,%eax
  4035ab:	5b                   	pop    %ebx
  4035ac:	5e                   	pop    %esi
  4035ad:	c3                   	ret    
  4035ae:	66 90                	xchg   %ax,%ax
  4035b0:	89 43 08             	mov    %eax,0x8(%ebx)
  4035b3:	81 c4 54 01 00 00    	add    $0x154,%esp
  4035b9:	89 f0                	mov    %esi,%eax
  4035bb:	5b                   	pop    %ebx
  4035bc:	5e                   	pop    %esi
  4035bd:	c3                   	ret    
  4035be:	e8 fd 04 00 00       	call   403ac0 <__errno>
  4035c3:	89 c3                	mov    %eax,%ebx
  4035c5:	e8 66 05 00 00       	call   403b30 <_GetLastError@0>
  4035ca:	83 f8 03             	cmp    $0x3,%eax
  4035cd:	89 03                	mov    %eax,(%ebx)
  4035cf:	74 31                	je     403602 <.text+0xc2>
  4035d1:	e8 ea 04 00 00       	call   403ac0 <__errno>
  4035d6:	81 38 0b 01 00 00    	cmpl   $0x10b,(%eax)
  4035dc:	74 17                	je     4035f5 <.text+0xb5>
  4035de:	e8 dd 04 00 00       	call   403ac0 <__errno>
  4035e3:	83 38 02             	cmpl   $0x2,(%eax)
  4035e6:	74 bb                	je     4035a3 <.text+0x63>
  4035e8:	e8 d3 04 00 00       	call   403ac0 <__errno>
  4035ed:	c7 00 16 00 00 00    	movl   $0x16,(%eax)
  4035f3:	eb ae                	jmp    4035a3 <.text+0x63>
  4035f5:	e8 c6 04 00 00       	call   403ac0 <__errno>
  4035fa:	c7 00 14 00 00 00    	movl   $0x14,(%eax)
  403600:	eb a1                	jmp    4035a3 <.text+0x63>
  403602:	e8 b9 04 00 00       	call   403ac0 <__errno>
  403607:	c7 00 02 00 00 00    	movl   $0x2,(%eax)
  40360d:	eb 94                	jmp    4035a3 <.text+0x63>
  40360f:	90                   	nop
  403610:	56                   	push   %esi
  403611:	53                   	push   %ebx
  403612:	89 d3                	mov    %edx,%ebx
  403614:	81 ec 54 01 00 00    	sub    $0x154,%esp
  40361a:	8d 54 24 10          	lea    0x10(%esp),%edx
  40361e:	89 04 24             	mov    %eax,(%esp)
  403621:	89 54 24 04          	mov    %edx,0x4(%esp)
  403625:	e8 1e 05 00 00       	call   403b48 <_FindNextFileA@8>
  40362a:	83 ec 08             	sub    $0x8,%esp
  40362d:	85 c0                	test   %eax,%eax
  40362f:	89 c6                	mov    %eax,%esi
  403631:	74 5f                	je     403692 <.text+0x152>
  403633:	31 c0                	xor    %eax,%eax
  403635:	8d 4b 0c             	lea    0xc(%ebx),%ecx
  403638:	66 89 43 06          	mov    %ax,0x6(%ebx)
  40363c:	31 c0                	xor    %eax,%eax
  40363e:	eb 12                	jmp    403652 <.text+0x112>
  403640:	0f b7 43 06          	movzwl 0x6(%ebx),%eax
  403644:	83 c0 01             	add    $0x1,%eax
  403647:	66 3d 04 01          	cmp    $0x104,%ax
  40364b:	66 89 43 06          	mov    %ax,0x6(%ebx)
  40364f:	83 d1 00             	adc    $0x0,%ecx
  403652:	0f b7 c0             	movzwl %ax,%eax
  403655:	0f b6 44 04 3c       	movzbl 0x3c(%esp,%eax,1),%eax
  40365a:	84 c0                	test   %al,%al
  40365c:	88 01                	mov    %al,(%ecx)
  40365e:	75 e0                	jne    403640 <.text+0x100>
  403660:	8b 44 24 10          	mov    0x10(%esp),%eax
  403664:	24 58                	and    $0x58,%al
  403666:	83 f8 10             	cmp    $0x10,%eax
  403669:	77 15                	ja     403680 <.text+0x140>
  40366b:	89 43 08             	mov    %eax,0x8(%ebx)
  40366e:	81 c4 54 01 00 00    	add    $0x154,%esp
  403674:	89 f0                	mov    %esi,%eax
  403676:	5b                   	pop    %ebx
  403677:	5e                   	pop    %esi
  403678:	c3                   	ret    
  403679:	8d b4 26 00 00 00 00 	lea    0x0(%esi,%eiz,1),%esi
  403680:	c7 43 08 18 00 00 00 	movl   $0x18,0x8(%ebx)
  403687:	81 c4 54 01 00 00    	add    $0x154,%esp
  40368d:	89 f0                	mov    %esi,%eax
  40368f:	5b                   	pop    %ebx
  403690:	5e                   	pop    %esi
  403691:	c3                   	ret    
  403692:	e8 99 04 00 00       	call   403b30 <_GetLastError@0>
  403697:	83 f8 12             	cmp    $0x12,%eax
  40369a:	74 d2                	je     40366e <.text+0x12e>
  40369c:	e8 1f 04 00 00       	call   403ac0 <__errno>
  4036a1:	c7 00 02 00 00 00    	movl   $0x2,(%eax)
  4036a7:	81 c4 54 01 00 00    	add    $0x154,%esp
  4036ad:	89 f0                	mov    %esi,%eax
  4036af:	5b                   	pop    %ebx
  4036b0:	5e                   	pop    %esi
  4036b1:	c3                   	ret    
  4036b2:	8d b4 26 00 00 00 00 	lea    0x0(%esi,%eiz,1),%esi
  4036b9:	8d bc 27 00 00 00 00 	lea    0x0(%edi,%eiz,1),%edi

004036c0 <___mingw_opendir>:
  4036c0:	55                   	push   %ebp
  4036c1:	57                   	push   %edi
  4036c2:	56                   	push   %esi
  4036c3:	53                   	push   %ebx
  4036c4:	81 ec 2c 01 00 00    	sub    $0x12c,%esp
  4036ca:	8b 84 24 40 01 00 00 	mov    0x140(%esp),%eax
  4036d1:	85 c0                	test   %eax,%eax
  4036d3:	0f 84 83 01 00 00    	je     40385c <___mingw_opendir+0x19c>
  4036d9:	80 38 00             	cmpb   $0x0,(%eax)
  4036dc:	0f 84 5e 01 00 00    	je     403840 <___mingw_opendir+0x180>
  4036e2:	8d 7c 24 1c          	lea    0x1c(%esp),%edi
  4036e6:	c7 44 24 08 04 01 00 	movl   $0x104,0x8(%esp)
  4036ed:	00 
  4036ee:	89 44 24 04          	mov    %eax,0x4(%esp)
  4036f2:	89 3c 24             	mov    %edi,(%esp)
  4036f5:	e8 be 03 00 00       	call   403ab8 <__fullpath>
  4036fa:	80 7c 24 1c 00       	cmpb   $0x0,0x1c(%esp)
  4036ff:	89 f8                	mov    %edi,%eax
  403701:	74 4d                	je     403750 <___mingw_opendir+0x90>
  403703:	8b 08                	mov    (%eax),%ecx
  403705:	83 c0 04             	add    $0x4,%eax
  403708:	8d 91 ff fe fe fe    	lea    -0x1010101(%ecx),%edx
  40370e:	f7 d1                	not    %ecx
  403710:	21 ca                	and    %ecx,%edx
  403712:	81 e2 80 80 80 80    	and    $0x80808080,%edx
  403718:	74 e9                	je     403703 <___mingw_opendir+0x43>
  40371a:	f7 c2 80 80 00 00    	test   $0x8080,%edx
  403720:	0f 84 0a 01 00 00    	je     403830 <___mingw_opendir+0x170>
  403726:	89 d1                	mov    %edx,%ecx
  403728:	00 d1                	add    %dl,%cl
  40372a:	83 d8 03             	sbb    $0x3,%eax
  40372d:	29 f8                	sub    %edi,%eax
  40372f:	0f b6 54 04 1b       	movzbl 0x1b(%esp,%eax,1),%edx
  403734:	80 fa 2f             	cmp    $0x2f,%dl
  403737:	74 43                	je     40377c <___mingw_opendir+0xbc>
  403739:	80 fa 5c             	cmp    $0x5c,%dl
  40373c:	74 3e                	je     40377c <___mingw_opendir+0xbc>
  40373e:	b9 5c 00 00 00       	mov    $0x5c,%ecx
  403743:	66 89 0c 07          	mov    %cx,(%edi,%eax,1)
  403747:	83 c0 01             	add    $0x1,%eax
  40374a:	eb 30                	jmp    40377c <___mingw_opendir+0xbc>
  40374c:	8d 74 26 00          	lea    0x0(%esi,%eiz,1),%esi
  403750:	8b 08                	mov    (%eax),%ecx
  403752:	83 c0 04             	add    $0x4,%eax
  403755:	8d 91 ff fe fe fe    	lea    -0x1010101(%ecx),%edx
  40375b:	f7 d1                	not    %ecx
  40375d:	21 ca                	and    %ecx,%edx
  40375f:	81 e2 80 80 80 80    	and    $0x80808080,%edx
  403765:	74 e9                	je     403750 <___mingw_opendir+0x90>
  403767:	f7 c2 80 80 00 00    	test   $0x8080,%edx
  40376d:	0f 84 ad 00 00 00    	je     403820 <___mingw_opendir+0x160>
  403773:	89 d1                	mov    %edx,%ecx
  403775:	00 d1                	add    %dl,%cl
  403777:	83 d8 03             	sbb    $0x3,%eax
  40377a:	29 f8                	sub    %edi,%eax
  40377c:	ba 2a 00 00 00       	mov    $0x2a,%edx
  403781:	89 fb                	mov    %edi,%ebx
  403783:	66 89 14 07          	mov    %dx,(%edi,%eax,1)
  403787:	8b 13                	mov    (%ebx),%edx
  403789:	83 c3 04             	add    $0x4,%ebx
  40378c:	8d 82 ff fe fe fe    	lea    -0x1010101(%edx),%eax
  403792:	f7 d2                	not    %edx
  403794:	21 d0                	and    %edx,%eax
  403796:	25 80 80 80 80       	and    $0x80808080,%eax
  40379b:	74 ea                	je     403787 <___mingw_opendir+0xc7>
  40379d:	a9 80 80 00 00       	test   $0x8080,%eax
  4037a2:	75 06                	jne    4037aa <___mingw_opendir+0xea>
  4037a4:	c1 e8 10             	shr    $0x10,%eax
  4037a7:	83 c3 02             	add    $0x2,%ebx
  4037aa:	89 c1                	mov    %eax,%ecx
  4037ac:	00 c1                	add    %al,%cl
  4037ae:	83 db 03             	sbb    $0x3,%ebx
  4037b1:	29 fb                	sub    %edi,%ebx
  4037b3:	8d 83 1c 01 00 00    	lea    0x11c(%ebx),%eax
  4037b9:	89 04 24             	mov    %eax,(%esp)
  4037bc:	e8 bf 02 00 00       	call   403a80 <_malloc>
  4037c1:	85 c0                	test   %eax,%eax
  4037c3:	89 c6                	mov    %eax,%esi
  4037c5:	0f 84 84 00 00 00    	je     40384f <___mingw_opendir+0x18f>
  4037cb:	8d a8 18 01 00 00    	lea    0x118(%eax),%ebp
  4037d1:	83 c3 01             	add    $0x1,%ebx
  4037d4:	89 7c 24 04          	mov    %edi,0x4(%esp)
  4037d8:	89 5c 24 08          	mov    %ebx,0x8(%esp)
  4037dc:	89 2c 24             	mov    %ebp,(%esp)
  4037df:	e8 8c 02 00 00       	call   403a70 <_memcpy>
  4037e4:	89 f2                	mov    %esi,%edx
  4037e6:	89 e8                	mov    %ebp,%eax
  4037e8:	e8 53 fd ff ff       	call   403540 <.text>
  4037ed:	83 f8 ff             	cmp    $0xffffffff,%eax
  4037f0:	89 86 10 01 00 00    	mov    %eax,0x110(%esi)
  4037f6:	74 73                	je     40386b <___mingw_opendir+0x1ab>
  4037f8:	b8 10 01 00 00       	mov    $0x110,%eax
  4037fd:	c7 86 14 01 00 00 00 	movl   $0x0,0x114(%esi)
  403804:	00 00 00 
  403807:	c7 06 00 00 00 00    	movl   $0x0,(%esi)
  40380d:	66 89 46 04          	mov    %ax,0x4(%esi)
  403811:	81 c4 2c 01 00 00    	add    $0x12c,%esp
  403817:	89 f0                	mov    %esi,%eax
  403819:	5b                   	pop    %ebx
  40381a:	5e                   	pop    %esi
  40381b:	5f                   	pop    %edi
  40381c:	5d                   	pop    %ebp
  40381d:	c3                   	ret    
  40381e:	66 90                	xchg   %ax,%ax
  403820:	c1 ea 10             	shr    $0x10,%edx
  403823:	83 c0 02             	add    $0x2,%eax
  403826:	e9 48 ff ff ff       	jmp    403773 <___mingw_opendir+0xb3>
  40382b:	90                   	nop
  40382c:	8d 74 26 00          	lea    0x0(%esi,%eiz,1),%esi
  403830:	c1 ea 10             	shr    $0x10,%edx
  403833:	83 c0 02             	add    $0x2,%eax
  403836:	e9 eb fe ff ff       	jmp    403726 <___mingw_opendir+0x66>
  40383b:	90                   	nop
  40383c:	8d 74 26 00          	lea    0x0(%esi,%eiz,1),%esi
  403840:	e8 7b 02 00 00       	call   403ac0 <__errno>
  403845:	31 f6                	xor    %esi,%esi
  403847:	c7 00 02 00 00 00    	movl   $0x2,(%eax)
  40384d:	eb c2                	jmp    403811 <___mingw_opendir+0x151>
  40384f:	e8 6c 02 00 00       	call   403ac0 <__errno>
  403854:	c7 00 0c 00 00 00    	movl   $0xc,(%eax)
  40385a:	eb b5                	jmp    403811 <___mingw_opendir+0x151>
  40385c:	e8 5f 02 00 00       	call   403ac0 <__errno>
  403861:	31 f6                	xor    %esi,%esi
  403863:	c7 00 16 00 00 00    	movl   $0x16,(%eax)
  403869:	eb a6                	jmp    403811 <___mingw_opendir+0x151>
  40386b:	89 34 24             	mov    %esi,(%esp)
  40386e:	31 f6                	xor    %esi,%esi
  403870:	e8 1b 02 00 00       	call   403a90 <_free>
  403875:	eb 9a                	jmp    403811 <___mingw_opendir+0x151>
  403877:	89 f6                	mov    %esi,%esi
  403879:	8d bc 27 00 00 00 00 	lea    0x0(%edi,%eiz,1),%edi

00403880 <___mingw_readdir>:
  403880:	53                   	push   %ebx
  403881:	83 ec 08             	sub    $0x8,%esp
  403884:	8b 5c 24 10          	mov    0x10(%esp),%ebx
  403888:	85 db                	test   %ebx,%ebx
  40388a:	74 2b                	je     4038b7 <___mingw_readdir+0x37>
  40388c:	8b 83 14 01 00 00    	mov    0x114(%ebx),%eax
  403892:	8d 50 01             	lea    0x1(%eax),%edx
  403895:	85 c0                	test   %eax,%eax
  403897:	89 93 14 01 00 00    	mov    %edx,0x114(%ebx)
  40389d:	7e 11                	jle    4038b0 <___mingw_readdir+0x30>
  40389f:	8b 83 10 01 00 00    	mov    0x110(%ebx),%eax
  4038a5:	89 da                	mov    %ebx,%edx
  4038a7:	e8 64 fd ff ff       	call   403610 <.text+0xd0>
  4038ac:	85 c0                	test   %eax,%eax
  4038ae:	74 02                	je     4038b2 <___mingw_readdir+0x32>
  4038b0:	89 d8                	mov    %ebx,%eax
  4038b2:	83 c4 08             	add    $0x8,%esp
  4038b5:	5b                   	pop    %ebx
  4038b6:	c3                   	ret    
  4038b7:	e8 04 02 00 00       	call   403ac0 <__errno>
  4038bc:	c7 00 09 00 00 00    	movl   $0x9,(%eax)
  4038c2:	31 c0                	xor    %eax,%eax
  4038c4:	eb ec                	jmp    4038b2 <___mingw_readdir+0x32>
  4038c6:	8d 76 00             	lea    0x0(%esi),%esi
  4038c9:	8d bc 27 00 00 00 00 	lea    0x0(%edi,%eiz,1),%edi

004038d0 <___mingw_closedir>:
  4038d0:	53                   	push   %ebx
  4038d1:	83 ec 18             	sub    $0x18,%esp
  4038d4:	8b 5c 24 20          	mov    0x20(%esp),%ebx
  4038d8:	85 db                	test   %ebx,%ebx
  4038da:	74 24                	je     403900 <___mingw_closedir+0x30>
  4038dc:	8b 83 10 01 00 00    	mov    0x110(%ebx),%eax
  4038e2:	89 04 24             	mov    %eax,(%esp)
  4038e5:	e8 6e 02 00 00       	call   403b58 <_FindClose@4>
  4038ea:	83 ec 04             	sub    $0x4,%esp
  4038ed:	85 c0                	test   %eax,%eax
  4038ef:	74 0f                	je     403900 <___mingw_closedir+0x30>
  4038f1:	89 1c 24             	mov    %ebx,(%esp)
  4038f4:	e8 97 01 00 00       	call   403a90 <_free>
  4038f9:	31 c0                	xor    %eax,%eax
  4038fb:	83 c4 18             	add    $0x18,%esp
  4038fe:	5b                   	pop    %ebx
  4038ff:	c3                   	ret    
  403900:	e8 bb 01 00 00       	call   403ac0 <__errno>
  403905:	c7 00 09 00 00 00    	movl   $0x9,(%eax)
  40390b:	b8 ff ff ff ff       	mov    $0xffffffff,%eax
  403910:	eb e9                	jmp    4038fb <___mingw_closedir+0x2b>
  403912:	8d b4 26 00 00 00 00 	lea    0x0(%esi,%eiz,1),%esi
  403919:	8d bc 27 00 00 00 00 	lea    0x0(%edi,%eiz,1),%edi

00403920 <___mingw_rewinddir>:
  403920:	53                   	push   %ebx
  403921:	83 ec 18             	sub    $0x18,%esp
  403924:	8b 5c 24 20          	mov    0x20(%esp),%ebx
  403928:	85 db                	test   %ebx,%ebx
  40392a:	74 15                	je     403941 <___mingw_rewinddir+0x21>
  40392c:	8b 83 10 01 00 00    	mov    0x110(%ebx),%eax
  403932:	89 04 24             	mov    %eax,(%esp)
  403935:	e8 1e 02 00 00       	call   403b58 <_FindClose@4>
  40393a:	83 ec 04             	sub    $0x4,%esp
  40393d:	85 c0                	test   %eax,%eax
  40393f:	75 10                	jne    403951 <___mingw_rewinddir+0x31>
  403941:	e8 7a 01 00 00       	call   403ac0 <__errno>
  403946:	c7 00 09 00 00 00    	movl   $0x9,(%eax)
  40394c:	83 c4 18             	add    $0x18,%esp
  40394f:	5b                   	pop    %ebx
  403950:	c3                   	ret    
  403951:	8d 83 18 01 00 00    	lea    0x118(%ebx),%eax
  403957:	89 da                	mov    %ebx,%edx
  403959:	e8 e2 fb ff ff       	call   403540 <.text>
  40395e:	83 f8 ff             	cmp    $0xffffffff,%eax
  403961:	89 83 10 01 00 00    	mov    %eax,0x110(%ebx)
  403967:	74 e3                	je     40394c <___mingw_rewinddir+0x2c>
  403969:	c7 83 14 01 00 00 00 	movl   $0x0,0x114(%ebx)
  403970:	00 00 00 
  403973:	83 c4 18             	add    $0x18,%esp
  403976:	5b                   	pop    %ebx
  403977:	c3                   	ret    
  403978:	90                   	nop
  403979:	8d b4 26 00 00 00 00 	lea    0x0(%esi,%eiz,1),%esi

00403980 <___mingw_telldir>:
  403980:	83 ec 0c             	sub    $0xc,%esp
  403983:	8b 44 24 10          	mov    0x10(%esp),%eax
  403987:	85 c0                	test   %eax,%eax
  403989:	74 0a                	je     403995 <___mingw_telldir+0x15>
  40398b:	8b 80 14 01 00 00    	mov    0x114(%eax),%eax
  403991:	83 c4 0c             	add    $0xc,%esp
  403994:	c3                   	ret    
  403995:	e8 26 01 00 00       	call   403ac0 <__errno>
  40399a:	c7 00 09 00 00 00    	movl   $0x9,(%eax)
  4039a0:	b8 ff ff ff ff       	mov    $0xffffffff,%eax
  4039a5:	eb ea                	jmp    403991 <___mingw_telldir+0x11>
  4039a7:	89 f6                	mov    %esi,%esi
  4039a9:	8d bc 27 00 00 00 00 	lea    0x0(%edi,%eiz,1),%edi

004039b0 <___mingw_seekdir>:
  4039b0:	56                   	push   %esi
  4039b1:	53                   	push   %ebx
  4039b2:	83 ec 14             	sub    $0x14,%esp
  4039b5:	8b 74 24 24          	mov    0x24(%esp),%esi
  4039b9:	8b 5c 24 20          	mov    0x20(%esp),%ebx
  4039bd:	85 f6                	test   %esi,%esi
  4039bf:	78 4f                	js     403a10 <___mingw_seekdir+0x60>
  4039c1:	89 1c 24             	mov    %ebx,(%esp)
  4039c4:	e8 57 ff ff ff       	call   403920 <___mingw_rewinddir>
  4039c9:	85 f6                	test   %esi,%esi
  4039cb:	74 37                	je     403a04 <___mingw_seekdir+0x54>
  4039cd:	83 bb 10 01 00 00 ff 	cmpl   $0xffffffff,0x110(%ebx)
  4039d4:	75 1b                	jne    4039f1 <___mingw_seekdir+0x41>
  4039d6:	eb 2c                	jmp    403a04 <___mingw_seekdir+0x54>
  4039d8:	90                   	nop
  4039d9:	8d b4 26 00 00 00 00 	lea    0x0(%esi,%eiz,1),%esi
  4039e0:	8b 83 10 01 00 00    	mov    0x110(%ebx),%eax
  4039e6:	89 da                	mov    %ebx,%edx
  4039e8:	e8 23 fc ff ff       	call   403610 <.text+0xd0>
  4039ed:	85 c0                	test   %eax,%eax
  4039ef:	74 13                	je     403a04 <___mingw_seekdir+0x54>
  4039f1:	8b 83 14 01 00 00    	mov    0x114(%ebx),%eax
  4039f7:	83 c0 01             	add    $0x1,%eax
  4039fa:	39 c6                	cmp    %eax,%esi
  4039fc:	89 83 14 01 00 00    	mov    %eax,0x114(%ebx)
  403a02:	7f dc                	jg     4039e0 <___mingw_seekdir+0x30>
  403a04:	83 c4 14             	add    $0x14,%esp
  403a07:	5b                   	pop    %ebx
  403a08:	5e                   	pop    %esi
  403a09:	c3                   	ret    
  403a0a:	8d b6 00 00 00 00    	lea    0x0(%esi),%esi
  403a10:	e8 ab 00 00 00       	call   403ac0 <__errno>
  403a15:	c7 00 16 00 00 00    	movl   $0x16,(%eax)
  403a1b:	83 c4 14             	add    $0x14,%esp
  403a1e:	5b                   	pop    %ebx
  403a1f:	5e                   	pop    %esi
  403a20:	c3                   	ret    
  403a21:	90                   	nop
  403a22:	90                   	nop
  403a23:	90                   	nop
  403a24:	90                   	nop
  403a25:	90                   	nop
  403a26:	90                   	nop
  403a27:	90                   	nop
  403a28:	90                   	nop
  403a29:	90                   	nop
  403a2a:	90                   	nop
  403a2b:	90                   	nop
  403a2c:	90                   	nop
  403a2d:	90                   	nop
  403a2e:	90                   	nop
  403a2f:	90                   	nop

00403a30 <_wcstombs>:
  403a30:	ff 25 f0 81 40 00    	jmp    *0x4081f0
  403a36:	90                   	nop
  403a37:	90                   	nop

00403a38 <_vfprintf>:
  403a38:	ff 25 ec 81 40 00    	jmp    *0x4081ec
  403a3e:	90                   	nop
  403a3f:	90                   	nop

00403a40 <_tolower>:
  403a40:	ff 25 e8 81 40 00    	jmp    *0x4081e8
  403a46:	90                   	nop
  403a47:	90                   	nop

00403a48 <_strlen>:
  403a48:	ff 25 e4 81 40 00    	jmp    *0x4081e4
  403a4e:	90                   	nop
  403a4f:	90                   	nop

00403a50 <_strcoll>:
  403a50:	ff 25 e0 81 40 00    	jmp    *0x4081e0
  403a56:	90                   	nop
  403a57:	90                   	nop

00403a58 <_signal>:
  403a58:	ff 25 dc 81 40 00    	jmp    *0x4081dc
  403a5e:	90                   	nop
  403a5f:	90                   	nop

00403a60 <_setlocale>:
  403a60:	ff 25 d8 81 40 00    	jmp    *0x4081d8
  403a66:	90                   	nop
  403a67:	90                   	nop

00403a68 <_realloc>:
  403a68:	ff 25 d4 81 40 00    	jmp    *0x4081d4
  403a6e:	90                   	nop
  403a6f:	90                   	nop

00403a70 <_memcpy>:
  403a70:	ff 25 d0 81 40 00    	jmp    *0x4081d0
  403a76:	90                   	nop
  403a77:	90                   	nop

00403a78 <_mbstowcs>:
  403a78:	ff 25 cc 81 40 00    	jmp    *0x4081cc
  403a7e:	90                   	nop
  403a7f:	90                   	nop

00403a80 <_malloc>:
  403a80:	ff 25 c8 81 40 00    	jmp    *0x4081c8
  403a86:	90                   	nop
  403a87:	90                   	nop

00403a88 <_fwrite>:
  403a88:	ff 25 c4 81 40 00    	jmp    *0x4081c4
  403a8e:	90                   	nop
  403a8f:	90                   	nop

00403a90 <_free>:
  403a90:	ff 25 c0 81 40 00    	jmp    *0x4081c0
  403a96:	90                   	nop
  403a97:	90                   	nop

00403a98 <_calloc>:
  403a98:	ff 25 bc 81 40 00    	jmp    *0x4081bc
  403a9e:	90                   	nop
  403a9f:	90                   	nop

00403aa0 <_abort>:
  403aa0:	ff 25 b4 81 40 00    	jmp    *0x4081b4
  403aa6:	90                   	nop
  403aa7:	90                   	nop

00403aa8 <__setmode>:
  403aa8:	ff 25 b0 81 40 00    	jmp    *0x4081b0
  403aae:	90                   	nop
  403aaf:	90                   	nop

00403ab0 <__isctype>:
  403ab0:	ff 25 a4 81 40 00    	jmp    *0x4081a4
  403ab6:	90                   	nop
  403ab7:	90                   	nop

00403ab8 <__fullpath>:
  403ab8:	ff 25 9c 81 40 00    	jmp    *0x40819c
  403abe:	90                   	nop
  403abf:	90                   	nop

00403ac0 <__errno>:
  403ac0:	ff 25 94 81 40 00    	jmp    *0x408194
  403ac6:	90                   	nop
  403ac7:	90                   	nop

00403ac8 <__cexit>:
  403ac8:	ff 25 90 81 40 00    	jmp    *0x408190
  403ace:	90                   	nop
  403acf:	90                   	nop

00403ad0 <___p__fmode>:
  403ad0:	ff 25 88 81 40 00    	jmp    *0x408188
  403ad6:	90                   	nop
  403ad7:	90                   	nop

00403ad8 <___p__environ>:
  403ad8:	ff 25 84 81 40 00    	jmp    *0x408184
  403ade:	90                   	nop
  403adf:	90                   	nop

00403ae0 <___getmainargs>:
  403ae0:	ff 25 7c 81 40 00    	jmp    *0x40817c
  403ae6:	90                   	nop
  403ae7:	90                   	nop

00403ae8 <_VirtualQuery@12>:
  403ae8:	ff 25 68 81 40 00    	jmp    *0x408168
  403aee:	90                   	nop
  403aef:	90                   	nop

00403af0 <_VirtualProtect@16>:
  403af0:	ff 25 64 81 40 00    	jmp    *0x408164
  403af6:	90                   	nop
  403af7:	90                   	nop

00403af8 <_TlsGetValue@4>:
  403af8:	ff 25 60 81 40 00    	jmp    *0x408160
  403afe:	90                   	nop
  403aff:	90                   	nop

00403b00 <_SetUnhandledExceptionFilter@4>:
  403b00:	ff 25 5c 81 40 00    	jmp    *0x40815c
  403b06:	90                   	nop
  403b07:	90                   	nop

00403b08 <_LoadLibraryA@4>:
  403b08:	ff 25 58 81 40 00    	jmp    *0x408158
  403b0e:	90                   	nop
  403b0f:	90                   	nop

00403b10 <_LeaveCriticalSection@4>:
  403b10:	ff 25 54 81 40 00    	jmp    *0x408154
  403b16:	90                   	nop
  403b17:	90                   	nop

00403b18 <_InitializeCriticalSection@4>:
  403b18:	ff 25 50 81 40 00    	jmp    *0x408150
  403b1e:	90                   	nop
  403b1f:	90                   	nop

00403b20 <_GetProcAddress@8>:
  403b20:	ff 25 4c 81 40 00    	jmp    *0x40814c
  403b26:	90                   	nop
  403b27:	90                   	nop

00403b28 <_GetModuleHandleA@4>:
  403b28:	ff 25 48 81 40 00    	jmp    *0x408148
  403b2e:	90                   	nop
  403b2f:	90                   	nop

00403b30 <_GetLastError@0>:
  403b30:	ff 25 44 81 40 00    	jmp    *0x408144
  403b36:	90                   	nop
  403b37:	90                   	nop

00403b38 <_GetCommandLineA@0>:
  403b38:	ff 25 40 81 40 00    	jmp    *0x408140
  403b3e:	90                   	nop
  403b3f:	90                   	nop

00403b40 <_FreeLibrary@4>:
  403b40:	ff 25 3c 81 40 00    	jmp    *0x40813c
  403b46:	90                   	nop
  403b47:	90                   	nop

00403b48 <_FindNextFileA@8>:
  403b48:	ff 25 38 81 40 00    	jmp    *0x408138
  403b4e:	90                   	nop
  403b4f:	90                   	nop

00403b50 <_FindFirstFileA@8>:
  403b50:	ff 25 34 81 40 00    	jmp    *0x408134
  403b56:	90                   	nop
  403b57:	90                   	nop

00403b58 <_FindClose@4>:
  403b58:	ff 25 30 81 40 00    	jmp    *0x408130
  403b5e:	90                   	nop
  403b5f:	90                   	nop

00403b60 <_ExitProcess@4>:
  403b60:	ff 25 2c 81 40 00    	jmp    *0x40812c
  403b66:	90                   	nop
  403b67:	90                   	nop

00403b68 <_EnterCriticalSection@4>:
  403b68:	ff 25 28 81 40 00    	jmp    *0x408128
  403b6e:	90                   	nop
  403b6f:	90                   	nop

00403b70 <_DeleteCriticalSection@4>:
  403b70:	ff 25 24 81 40 00    	jmp    *0x408124
  403b76:	90                   	nop
  403b77:	90                   	nop

00403b78 <_stricoll>:
  403b78:	ff 25 74 81 40 00    	jmp    *0x408174
  403b7e:	90                   	nop
  403b7f:	90                   	nop

00403b80 <_strdup>:
  403b80:	ff 25 70 81 40 00    	jmp    *0x408170
  403b86:	90                   	nop
  403b87:	90                   	nop

00403b88 <.text>:
  403b88:	66 90                	xchg   %ax,%ax
  403b8a:	66 90                	xchg   %ax,%ax
  403b8c:	66 90                	xchg   %ax,%ax
  403b8e:	66 90                	xchg   %ax,%ax

00403b90 <_register_frame_ctor>:
  403b90:	55                   	push   %ebp
  403b91:	89 e5                	mov    %esp,%ebp
  403b93:	5d                   	pop    %ebp
  403b94:	e9 a7 d7 ff ff       	jmp    401340 <___gcc_register_frame>
  403b99:	90                   	nop
  403b9a:	90                   	nop
  403b9b:	90                   	nop
  403b9c:	90                   	nop
  403b9d:	90                   	nop
  403b9e:	90                   	nop
  403b9f:	90                   	nop

00403ba0 <__CTOR_LIST__>:
  403ba0:	ff                   	(bad)  
  403ba1:	ff                   	(bad)  
  403ba2:	ff                   	(bad)  
  403ba3:	ff 90 3b 40 00 00    	call   *0x403b(%eax)

00403ba4 <.ctors.65535>:
  403ba4:	90                   	nop
  403ba5:	3b 40 00             	cmp    0x0(%eax),%eax
  403ba8:	00 00                	add    %al,(%eax)
	...

00403bac <__DTOR_LIST__>:
  403bac:	ff                   	(bad)  
  403bad:	ff                   	(bad)  
  403bae:	ff                   	(bad)  
  403baf:	ff 00                	incl   (%eax)
  403bb1:	00 00                	add    %al,(%eax)
	...

Disassembly of section .data:

00404000 <__data_start__>:
  404000:	00 00                	add    %al,(%eax)
	...

00404004 <__CRT_glob>:
  404004:	02 00                	add    (%eax),%al
	...

00404008 <__CRT_fenv>:
  404008:	fd                   	std    
  404009:	ff                   	(bad)  
  40400a:	ff                   	(bad)  
  40400b:	ff 00                	incl   (%eax)

0040400c <__fmode>:
  40400c:	00 40 00             	add    %al,0x0(%eax)
	...

00404010 <.data>:
  404010:	b0 3b                	mov    $0x3b,%al
  404012:	40                   	inc    %eax
	...

00404014 <.data>:
  404014:	ff                   	(bad)  
  404015:	ff                   	(bad)  
  404016:	ff                   	(bad)  
  404017:	ff 00                	incl   (%eax)

00404018 <___JCR_END__>:
  404018:	00 00                	add    %al,(%eax)
	...

Disassembly of section .rdata:

00405000 <.rdata>:
  405000:	6c                   	insb   (%dx),%es:(%edi)
  405001:	69 62 67 63 63 5f 73 	imul   $0x735f6363,0x67(%edx),%esp
  405008:	5f                   	pop    %edi
  405009:	64 77 32             	fs ja  40503e <.rdata+0x3e>
  40500c:	2d 31 2e 64 6c       	sub    $0x6c642e31,%eax
  405011:	6c                   	insb   (%dx),%es:(%edi)
  405012:	00 5f 5f             	add    %bl,0x5f(%edi)
  405015:	72 65                	jb     40507c <.rdata+0x14>
  405017:	67 69 73 74 65 72 5f 	imul   $0x665f7265,0x74(%bp,%di),%esi
  40501e:	66 
  40501f:	72 61                	jb     405082 <.rdata+0x1a>
  405021:	6d                   	insl   (%dx),%es:(%edi)
  405022:	65 5f                	gs pop %edi
  405024:	69 6e 66 6f 00 5f 5f 	imul   $0x5f5f006f,0x66(%esi),%ebp
  40502b:	64 65 72 65          	fs gs jb 405094 <.rdata+0x2c>
  40502f:	67 69 73 74 65 72 5f 	imul   $0x665f7265,0x74(%bp,%di),%esi
  405036:	66 
  405037:	72 61                	jb     40509a <.rdata+0x32>
  405039:	6d                   	insl   (%dx),%es:(%edi)
  40503a:	65 5f                	gs pop %edi
  40503c:	69 6e 66 6f 00 6c 69 	imul   $0x696c006f,0x66(%esi),%ebp
  405043:	62 67 63             	bound  %esp,0x63(%edi)
  405046:	6a 2d                	push   $0x2d
  405048:	31 36                	xor    %esi,(%esi)
  40504a:	2e 64 6c             	cs fs insb (%dx),%es:(%edi)
  40504d:	6c                   	insb   (%dx),%es:(%edi)
  40504e:	00 5f 4a             	add    %bl,0x4a(%edi)
  405051:	76 5f                	jbe    4050b2 <.rdata+0x4a>
  405053:	52                   	push   %edx
  405054:	65 67 69 73 74 65 72 	imul   $0x6c437265,%gs:0x74(%bp,%di),%esi
  40505b:	43 6c 
  40505d:	61                   	popa   
  40505e:	73 73                	jae    4050d3 <.rdata+0x6b>
  405060:	65 73 00             	gs jae 405063 <.rdata+0x63>
	...

00405064 <___dyn_tls_init_callback>:
  405064:	40                   	inc    %eax
  405065:	1a 40 00             	sbb    0x0(%eax),%al

00405068 <.rdata>:
  405068:	4d                   	dec    %ebp
  405069:	69 6e 67 77 20 72 75 	imul   $0x75722077,0x67(%esi),%ebp
  405070:	6e                   	outsb  %ds:(%esi),(%dx)
  405071:	74 69                	je     4050dc <.rdata+0x74>
  405073:	6d                   	insl   (%dx),%es:(%edi)
  405074:	65 20 66 61          	and    %ah,%gs:0x61(%esi)
  405078:	69 6c 75 72 65 3a 0a 	imul   $0xa3a65,0x72(%ebp,%esi,2),%ebp
  40507f:	00 
  405080:	20 20                	and    %ah,(%eax)
  405082:	56                   	push   %esi
  405083:	69 72 74 75 61 6c 51 	imul   $0x516c6175,0x74(%edx),%esi
  40508a:	75 65                	jne    4050f1 <.rdata+0x89>
  40508c:	72 79                	jb     405107 <.rdata+0x9f>
  40508e:	20 66 61             	and    %ah,0x61(%esi)
  405091:	69 6c 65 64 20 66 6f 	imul   $0x726f6620,0x64(%ebp,%eiz,2),%ebp
  405098:	72 
  405099:	20 25 64 20 62 79    	and    %ah,0x79622064
  40509f:	74 65                	je     405106 <.rdata+0x9e>
  4050a1:	73 20                	jae    4050c3 <.rdata+0x5b>
  4050a3:	61                   	popa   
  4050a4:	74 20                	je     4050c6 <.rdata+0x5e>
  4050a6:	61                   	popa   
  4050a7:	64 64 72 65          	fs fs jb 405110 <.rdata+0xa8>
  4050ab:	73 73                	jae    405120 <.rdata+0xc>
  4050ad:	20 25 70 00 00 00    	and    %ah,0x70
  4050b3:	00 20                	add    %ah,(%eax)
  4050b5:	20 55 6e             	and    %dl,0x6e(%ebp)
  4050b8:	6b 6e 6f 77          	imul   $0x77,0x6f(%esi),%ebp
  4050bc:	6e                   	outsb  %ds:(%esi),(%dx)
  4050bd:	20 70 73             	and    %dh,0x73(%eax)
  4050c0:	65 75 64             	gs jne 405127 <.rdata+0x13>
  4050c3:	6f                   	outsl  %ds:(%esi),(%dx)
  4050c4:	20 72 65             	and    %dh,0x65(%edx)
  4050c7:	6c                   	insb   (%dx),%es:(%edi)
  4050c8:	6f                   	outsl  %ds:(%esi),(%dx)
  4050c9:	63 61 74             	arpl   %sp,0x74(%ecx)
  4050cc:	69 6f 6e 20 70 72 6f 	imul   $0x6f727020,0x6e(%edi),%ebp
  4050d3:	74 6f                	je     405144 <.rdata$zzz>
  4050d5:	63 6f 6c             	arpl   %bp,0x6c(%edi)
  4050d8:	20 76 65             	and    %dh,0x65(%esi)
  4050db:	72 73                	jb     405150 <.rdata$zzz+0xc>
  4050dd:	69 6f 6e 20 25 64 2e 	imul   $0x2e642520,0x6e(%edi),%ebp
  4050e4:	0a 00                	or     (%eax),%al
  4050e6:	00 00                	add    %al,(%eax)
  4050e8:	20 20                	and    %ah,(%eax)
  4050ea:	55                   	push   %ebp
  4050eb:	6e                   	outsb  %ds:(%esi),(%dx)
  4050ec:	6b 6e 6f 77          	imul   $0x77,0x6f(%esi),%ebp
  4050f0:	6e                   	outsb  %ds:(%esi),(%dx)
  4050f1:	20 70 73             	and    %dh,0x73(%eax)
  4050f4:	65 75 64             	gs jne 40515b <.rdata$zzz+0x3>
  4050f7:	6f                   	outsl  %ds:(%esi),(%dx)
  4050f8:	20 72 65             	and    %dh,0x65(%edx)
  4050fb:	6c                   	insb   (%dx),%es:(%edi)
  4050fc:	6f                   	outsl  %ds:(%esi),(%dx)
  4050fd:	63 61 74             	arpl   %sp,0x74(%ecx)
  405100:	69 6f 6e 20 62 69 74 	imul   $0x74696220,0x6e(%edi),%ebp
  405107:	20 73 69             	and    %dh,0x69(%ebx)
  40510a:	7a 65                	jp     405171 <.rdata$zzz+0x19>
  40510c:	20 25 64 2e 0a 00    	and    %ah,0xa2e64
	...

00405114 <.rdata>:
  405114:	2e 00 67 6c          	add    %ah,%cs:0x6c(%edi)
  405118:	6f                   	outsl  %ds:(%esi),(%dx)
  405119:	62 2d 31 2e 30 2d    	bound  %ebp,0x2d302e31
  40511f:	6d                   	insl   (%dx),%es:(%edi)
  405120:	69 6e 67 77 33 32 00 	imul   $0x323377,0x67(%esi),%ebp
	...

00405128 <.rdata>:
  405128:	00 00                	add    %al,(%eax)
  40512a:	2e 00 00             	add    %al,%cs:(%eax)
  40512d:	00 00                	add    %al,(%eax)
  40512f:	00 47 43             	add    %al,0x43(%edi)
  405132:	43                   	inc    %ebx
  405133:	3a 20                	cmp    (%eax),%ah
  405135:	28 47 4e             	sub    %al,0x4e(%edi)
  405138:	55                   	push   %ebp
  405139:	29 20                	sub    %esp,(%eax)
  40513b:	36 2e 33 2e          	ss xor %cs:(%esi),%ebp
  40513f:	30 00                	xor    %al,(%eax)
  405141:	00 00                	add    %al,(%eax)
	...

00405144 <.rdata$zzz>:
  405144:	47                   	inc    %edi
  405145:	43                   	inc    %ebx
  405146:	43                   	inc    %ebx
  405147:	3a 20                	cmp    (%eax),%ah
  405149:	28 47 4e             	sub    %al,0x4e(%edi)
  40514c:	55                   	push   %ebp
  40514d:	29 20                	sub    %esp,(%eax)
  40514f:	36 2e 33 2e          	ss xor %cs:(%esi),%ebp
  405153:	30 00                	xor    %al,(%eax)
  405155:	00 00                	add    %al,(%eax)
	...

00405158 <.rdata$zzz>:
  405158:	47                   	inc    %edi
  405159:	43                   	inc    %ebx
  40515a:	43                   	inc    %ebx
  40515b:	3a 20                	cmp    (%eax),%ah
  40515d:	28 4d 69             	sub    %cl,0x69(%ebp)
  405160:	6e                   	outsb  %ds:(%esi),(%dx)
  405161:	47                   	inc    %edi
  405162:	57                   	push   %edi
  405163:	2e 6f                	outsl  %cs:(%esi),(%dx)
  405165:	72 67                	jb     4051ce <.rdata$zzz+0x76>
  405167:	20 47 43             	and    %al,0x43(%edi)
  40516a:	43                   	inc    %ebx
  40516b:	2d 36 2e 33 2e       	sub    $0x2e332e36,%eax
  405170:	30 2d 31 29 20 36    	xor    %ch,0x36202931
  405176:	2e 33 2e             	xor    %cs:(%esi),%ebp
  405179:	30 00                	xor    %al,(%eax)
  40517b:	00 47 43             	add    %al,0x43(%edi)
  40517e:	43                   	inc    %ebx
  40517f:	3a 20                	cmp    (%eax),%ah
  405181:	28 47 4e             	sub    %al,0x4e(%edi)
  405184:	55                   	push   %ebp
  405185:	29 20                	sub    %esp,(%eax)
  405187:	36 2e 33 2e          	ss xor %cs:(%esi),%ebp
  40518b:	30 00                	xor    %al,(%eax)
  40518d:	00 00                	add    %al,(%eax)
  40518f:	00 47 43             	add    %al,0x43(%edi)
  405192:	43                   	inc    %ebx
  405193:	3a 20                	cmp    (%eax),%ah
  405195:	28 47 4e             	sub    %al,0x4e(%edi)
  405198:	55                   	push   %ebp
  405199:	29 20                	sub    %esp,(%eax)
  40519b:	36 2e 33 2e          	ss xor %cs:(%esi),%ebp
  40519f:	30 00                	xor    %al,(%eax)
  4051a1:	00 00                	add    %al,(%eax)
  4051a3:	00 47 43             	add    %al,0x43(%edi)
  4051a6:	43                   	inc    %ebx
  4051a7:	3a 20                	cmp    (%eax),%ah
  4051a9:	28 47 4e             	sub    %al,0x4e(%edi)
  4051ac:	55                   	push   %ebp
  4051ad:	29 20                	sub    %esp,(%eax)
  4051af:	36 2e 33 2e          	ss xor %cs:(%esi),%ebp
  4051b3:	30 00                	xor    %al,(%eax)
  4051b5:	00 00                	add    %al,(%eax)
  4051b7:	00 47 43             	add    %al,0x43(%edi)
  4051ba:	43                   	inc    %ebx
  4051bb:	3a 20                	cmp    (%eax),%ah
  4051bd:	28 47 4e             	sub    %al,0x4e(%edi)
  4051c0:	55                   	push   %ebp
  4051c1:	29 20                	sub    %esp,(%eax)
  4051c3:	36 2e 33 2e          	ss xor %cs:(%esi),%ebp
  4051c7:	30 00                	xor    %al,(%eax)
  4051c9:	00 00                	add    %al,(%eax)
  4051cb:	00 47 43             	add    %al,0x43(%edi)
  4051ce:	43                   	inc    %ebx
  4051cf:	3a 20                	cmp    (%eax),%ah
  4051d1:	28 47 4e             	sub    %al,0x4e(%edi)
  4051d4:	55                   	push   %ebp
  4051d5:	29 20                	sub    %esp,(%eax)
  4051d7:	36 2e 33 2e          	ss xor %cs:(%esi),%ebp
  4051db:	30 00                	xor    %al,(%eax)
  4051dd:	00 00                	add    %al,(%eax)
  4051df:	00 47 43             	add    %al,0x43(%edi)
  4051e2:	43                   	inc    %ebx
  4051e3:	3a 20                	cmp    (%eax),%ah
  4051e5:	28 47 4e             	sub    %al,0x4e(%edi)
  4051e8:	55                   	push   %ebp
  4051e9:	29 20                	sub    %esp,(%eax)
  4051eb:	36 2e 33 2e          	ss xor %cs:(%esi),%ebp
  4051ef:	30 00                	xor    %al,(%eax)
  4051f1:	00 00                	add    %al,(%eax)
  4051f3:	00 47 43             	add    %al,0x43(%edi)
  4051f6:	43                   	inc    %ebx
  4051f7:	3a 20                	cmp    (%eax),%ah
  4051f9:	28 47 4e             	sub    %al,0x4e(%edi)
  4051fc:	55                   	push   %ebp
  4051fd:	29 20                	sub    %esp,(%eax)
  4051ff:	36 2e 33 2e          	ss xor %cs:(%esi),%ebp
  405203:	30 00                	xor    %al,(%eax)
  405205:	00 00                	add    %al,(%eax)
  405207:	00 47 43             	add    %al,0x43(%edi)
  40520a:	43                   	inc    %ebx
  40520b:	3a 20                	cmp    (%eax),%ah
  40520d:	28 47 4e             	sub    %al,0x4e(%edi)
  405210:	55                   	push   %ebp
  405211:	29 20                	sub    %esp,(%eax)
  405213:	36 2e 33 2e          	ss xor %cs:(%esi),%ebp
  405217:	30 00                	xor    %al,(%eax)
  405219:	00 00                	add    %al,(%eax)
  40521b:	00 47 43             	add    %al,0x43(%edi)
  40521e:	43                   	inc    %ebx
  40521f:	3a 20                	cmp    (%eax),%ah
  405221:	28 47 4e             	sub    %al,0x4e(%edi)
  405224:	55                   	push   %ebp
  405225:	29 20                	sub    %esp,(%eax)
  405227:	36 2e 33 2e          	ss xor %cs:(%esi),%ebp
  40522b:	30 00                	xor    %al,(%eax)
  40522d:	00 00                	add    %al,(%eax)
  40522f:	00 47 43             	add    %al,0x43(%edi)
  405232:	43                   	inc    %ebx
  405233:	3a 20                	cmp    (%eax),%ah
  405235:	28 47 4e             	sub    %al,0x4e(%edi)
  405238:	55                   	push   %ebp
  405239:	29 20                	sub    %esp,(%eax)
  40523b:	36 2e 33 2e          	ss xor %cs:(%esi),%ebp
  40523f:	30 00                	xor    %al,(%eax)
  405241:	00 00                	add    %al,(%eax)
  405243:	00 47 43             	add    %al,0x43(%edi)
  405246:	43                   	inc    %ebx
  405247:	3a 20                	cmp    (%eax),%ah
  405249:	28 47 4e             	sub    %al,0x4e(%edi)
  40524c:	55                   	push   %ebp
  40524d:	29 20                	sub    %esp,(%eax)
  40524f:	36 2e 33 2e          	ss xor %cs:(%esi),%ebp
  405253:	30 00                	xor    %al,(%eax)
  405255:	00 00                	add    %al,(%eax)
	...

00405258 <.rdata$zzz>:
  405258:	47                   	inc    %edi
  405259:	43                   	inc    %ebx
  40525a:	43                   	inc    %ebx
  40525b:	3a 20                	cmp    (%eax),%ah
  40525d:	28 47 4e             	sub    %al,0x4e(%edi)
  405260:	55                   	push   %ebp
  405261:	29 20                	sub    %esp,(%eax)
  405263:	36 2e 33 2e          	ss xor %cs:(%esi),%ebp
  405267:	30 00                	xor    %al,(%eax)
  405269:	00 00                	add    %al,(%eax)
  40526b:	00 47 43             	add    %al,0x43(%edi)
  40526e:	43                   	inc    %ebx
  40526f:	3a 20                	cmp    (%eax),%ah
  405271:	28 47 4e             	sub    %al,0x4e(%edi)
  405274:	55                   	push   %ebp
  405275:	29 20                	sub    %esp,(%eax)
  405277:	36 2e 33 2e          	ss xor %cs:(%esi),%ebp
  40527b:	30 00                	xor    %al,(%eax)
  40527d:	00 00                	add    %al,(%eax)
  40527f:	00 47 43             	add    %al,0x43(%edi)
  405282:	43                   	inc    %ebx
  405283:	3a 20                	cmp    (%eax),%ah
  405285:	28 47 4e             	sub    %al,0x4e(%edi)
  405288:	55                   	push   %ebp
  405289:	29 20                	sub    %esp,(%eax)
  40528b:	36 2e 33 2e          	ss xor %cs:(%esi),%ebp
  40528f:	30 00                	xor    %al,(%eax)
  405291:	00 00                	add    %al,(%eax)
  405293:	00 47 43             	add    %al,0x43(%edi)
  405296:	43                   	inc    %ebx
  405297:	3a 20                	cmp    (%eax),%ah
  405299:	28 47 4e             	sub    %al,0x4e(%edi)
  40529c:	55                   	push   %ebp
  40529d:	29 20                	sub    %esp,(%eax)
  40529f:	36 2e 33 2e          	ss xor %cs:(%esi),%ebp
  4052a3:	30 00                	xor    %al,(%eax)
  4052a5:	00 00                	add    %al,(%eax)
  4052a7:	00 47 43             	add    %al,0x43(%edi)
  4052aa:	43                   	inc    %ebx
  4052ab:	3a 20                	cmp    (%eax),%ah
  4052ad:	28 47 4e             	sub    %al,0x4e(%edi)
  4052b0:	55                   	push   %ebp
  4052b1:	29 20                	sub    %esp,(%eax)
  4052b3:	36 2e 33 2e          	ss xor %cs:(%esi),%ebp
  4052b7:	30 00                	xor    %al,(%eax)
  4052b9:	00 00                	add    %al,(%eax)
	...

004052bc <.rdata$zzz>:
  4052bc:	47                   	inc    %edi
  4052bd:	43                   	inc    %ebx
  4052be:	43                   	inc    %ebx
  4052bf:	3a 20                	cmp    (%eax),%ah
  4052c1:	28 47 4e             	sub    %al,0x4e(%edi)
  4052c4:	55                   	push   %ebp
  4052c5:	29 20                	sub    %esp,(%eax)
  4052c7:	36 2e 33 2e          	ss xor %cs:(%esi),%ebp
  4052cb:	30 00                	xor    %al,(%eax)
  4052cd:	00 00                	add    %al,(%eax)
	...

Disassembly of section .eh_frame:

00406000 <___EH_FRAME_BEGIN__-0xb8>:
  406000:	14 00                	adc    $0x0,%al
  406002:	00 00                	add    %al,(%eax)
  406004:	00 00                	add    %al,(%eax)
  406006:	00 00                	add    %al,(%eax)
  406008:	01 7a 52             	add    %edi,0x52(%edx)
  40600b:	00 01                	add    %al,(%ecx)
  40600d:	7c 08                	jl     406017 <__RUNTIME_PSEUDO_RELOC_LIST_END__+0xd47>
  40600f:	01 1b                	add    %ebx,(%ebx)
  406011:	0c 04                	or     $0x4,%al
  406013:	04 88                	add    $0x88,%al
  406015:	01 00                	add    %eax,(%eax)
  406017:	00 18                	add    %bl,(%eax)
  406019:	00 00                	add    %al,(%eax)
  40601b:	00 1c 00             	add    %bl,(%eax,%eax,1)
  40601e:	00 00                	add    %al,(%eax)
  406020:	e0 af                	loopne 405fd1 <__RUNTIME_PSEUDO_RELOC_LIST_END__+0xd01>
  406022:	ff                   	(bad)  
  406023:	ff a5 01 00 00 00    	jmp    *0x1(%ebp)
  406029:	43                   	inc    %ebx
  40602a:	0e                   	push   %cs
  40602b:	20 02                	and    %al,(%edx)
  40602d:	52                   	push   %edx
  40602e:	0a 0e                	or     (%esi),%cl
  406030:	04 4b                	add    $0x4b,%al
  406032:	0b 00                	or     (%eax),%eax
  406034:	18 00                	sbb    %al,(%eax)
  406036:	00 00                	add    %al,(%eax)
  406038:	38 00                	cmp    %al,(%eax)
  40603a:	00 00                	add    %al,(%eax)
  40603c:	74 b1                	je     405fef <__RUNTIME_PSEUDO_RELOC_LIST_END__+0xd1f>
  40603e:	ff                   	(bad)  
  40603f:	ff e7                	jmp    *%edi
  406041:	00 00                	add    %al,(%eax)
  406043:	00 00                	add    %al,(%eax)
  406045:	41                   	inc    %ecx
  406046:	0e                   	push   %cs
  406047:	08 85 02 42 0d 05    	or     %al,0x50d4202(%ebp)
  40604d:	44                   	inc    %esp
  40604e:	83 03 14             	addl   $0x14,(%ebx)
  406051:	00 00                	add    %al,(%eax)
  406053:	00 54 00 00          	add    %dl,0x0(%eax,%eax,1)
  406057:	00 48 b2             	add    %cl,-0x4e(%eax)
  40605a:	ff                   	(bad)  
  40605b:	ff                   	(bad)  
  40605c:	3f                   	aas    
  40605d:	00 00                	add    %al,(%eax)
  40605f:	00 00                	add    %al,(%eax)
  406061:	43                   	inc    %ebx
  406062:	0e                   	push   %cs
  406063:	40                   	inc    %eax
  406064:	7b 0e                	jnp    406074 <__RUNTIME_PSEUDO_RELOC_LIST_END__+0xda4>
  406066:	04 00                	add    $0x0,%al
  406068:	10 00                	adc    %al,(%eax)
  40606a:	00 00                	add    %al,(%eax)
  40606c:	6c                   	insb   (%dx),%es:(%edi)
  40606d:	00 00                	add    %al,(%eax)
  40606f:	00 70 b2             	add    %dh,-0x4e(%eax)
  406072:	ff                   	(bad)  
  406073:	ff 15 00 00 00 00    	call   *0x0
  406079:	43                   	inc    %ebx
  40607a:	0e                   	push   %cs
  40607b:	20 10                	and    %dl,(%eax)
  40607d:	00 00                	add    %al,(%eax)
  40607f:	00 80 00 00 00 7c    	add    %al,0x7c000000(%eax)
  406085:	b2 ff                	mov    $0xff,%dl
  406087:	ff 15 00 00 00 00    	call   *0x0
  40608d:	43                   	inc    %ebx
  40608e:	0e                   	push   %cs
  40608f:	20 10                	and    %dl,(%eax)
  406091:	00 00                	add    %al,(%eax)
  406093:	00 94 00 00 00 88 b2 	add    %dl,-0x4d780000(%eax,%eax,1)
  40609a:	ff                   	(bad)  
  40609b:	ff 06                	incl   (%esi)
  40609d:	00 00                	add    %al,(%eax)
  40609f:	00 00                	add    %al,(%eax)
  4060a1:	00 00                	add    %al,(%eax)
  4060a3:	00 10                	add    %dl,(%eax)
  4060a5:	00 00                	add    %al,(%eax)
  4060a7:	00 a8 00 00 00 84    	add    %ch,-0x7c000000(%eax)
  4060ad:	b2 ff                	mov    $0xff,%dl
  4060af:	ff 06                	incl   (%esi)
  4060b1:	00 00                	add    %al,(%eax)
  4060b3:	00 00                	add    %al,(%eax)
  4060b5:	00 00                	add    %al,(%eax)
	...

004060b8 <___EH_FRAME_BEGIN__>:
  4060b8:	14 00                	adc    $0x0,%al
  4060ba:	00 00                	add    %al,(%eax)
  4060bc:	00 00                	add    %al,(%eax)
  4060be:	00 00                	add    %al,(%eax)
  4060c0:	01 7a 52             	add    %edi,0x52(%edx)
  4060c3:	00 01                	add    %al,(%ecx)
  4060c5:	7c 08                	jl     4060cf <___EH_FRAME_BEGIN__+0x17>
  4060c7:	01 1b                	add    %ebx,(%ebx)
  4060c9:	0c 04                	or     $0x4,%al
  4060cb:	04 88                	add    $0x88,%al
  4060cd:	01 00                	add    %eax,(%eax)
  4060cf:	00 28                	add    %ch,(%eax)
  4060d1:	00 00                	add    %al,(%eax)
  4060d3:	00 1c 00             	add    %bl,(%eax,%eax,1)
  4060d6:	00 00                	add    %al,(%eax)
  4060d8:	68 b2 ff ff e1       	push   $0xe1ffffb2
  4060dd:	00 00                	add    %al,(%eax)
  4060df:	00 00                	add    %al,(%eax)
  4060e1:	41                   	inc    %ecx
  4060e2:	0e                   	push   %cs
  4060e3:	08 85 02 42 0d 05    	or     %al,0x50d4202(%ebp)
  4060e9:	45                   	inc    %ebp
  4060ea:	86 03                	xchg   %al,(%ebx)
  4060ec:	83 04 02 c2          	addl   $0xffffffc2,(%edx,%eax,1)
  4060f0:	0a c3                	or     %bl,%al
  4060f2:	41                   	inc    %ecx
  4060f3:	c6 41 c5 0c          	movb   $0xc,-0x3b(%ecx)
  4060f7:	04 04                	add    $0x4,%al
  4060f9:	44                   	inc    %esp
  4060fa:	0b 00                	or     (%eax),%eax
  4060fc:	1c 00                	sbb    $0x0,%al
  4060fe:	00 00                	add    %al,(%eax)
  406100:	48                   	dec    %eax
  406101:	00 00                	add    %al,(%eax)
  406103:	00 2c b3             	add    %ch,(%ebx,%esi,4)
  406106:	ff                   	(bad)  
  406107:	ff 2e                	ljmp   *(%esi)
  406109:	00 00                	add    %al,(%eax)
  40610b:	00 00                	add    %al,(%eax)
  40610d:	41                   	inc    %ecx
  40610e:	0e                   	push   %cs
  40610f:	08 85 02 42 0d 05    	or     %al,0x50d4202(%ebp)
  406115:	6a c5                	push   $0xffffffc5
  406117:	0c 04                	or     $0x4,%al
  406119:	04 00                	add    $0x0,%al
	...

0040611c <.eh_frame>:
  40611c:	14 00                	adc    $0x0,%al
  40611e:	00 00                	add    %al,(%eax)
  406120:	00 00                	add    %al,(%eax)
  406122:	00 00                	add    %al,(%eax)
  406124:	01 7a 52             	add    %edi,0x52(%edx)
  406127:	00 01                	add    %al,(%ecx)
  406129:	7c 08                	jl     406133 <.eh_frame+0x17>
  40612b:	01 1b                	add    %ebx,(%ebx)
  40612d:	0c 04                	or     $0x4,%al
  40612f:	04 88                	add    $0x88,%al
  406131:	01 00                	add    %eax,(%eax)
  406133:	00 1c 00             	add    %bl,(%eax,%eax,1)
  406136:	00 00                	add    %al,(%eax)
  406138:	1c 00                	sbb    $0x0,%al
  40613a:	00 00                	add    %al,(%eax)
  40613c:	24 b3                	and    $0xb3,%al
  40613e:	ff                   	(bad)  
  40613f:	ff 0c 00             	decl   (%eax,%eax,1)
  406142:	00 00                	add    %al,(%eax)
  406144:	00 41 0e             	add    %al,0xe(%ecx)
  406147:	08 85 02 42 0d 05    	or     %al,0x50d4202(%ebp)
  40614d:	48                   	dec    %eax
  40614e:	c5 0c 04             	lds    (%esp,%eax,1),%ecx
  406151:	04 00                	add    $0x0,%al
  406153:	00 1c 00             	add    %bl,(%eax,%eax,1)
  406156:	00 00                	add    %al,(%eax)
  406158:	3c 00                	cmp    $0x0,%al
  40615a:	00 00                	add    %al,(%eax)
  40615c:	10 b3 ff ff 29 00    	adc    %dh,0x29ffff(%ebx)
  406162:	00 00                	add    %al,(%eax)
  406164:	00 41 0e             	add    %al,0xe(%ecx)
  406167:	08 85 02 42 0d 05    	or     %al,0x50d4202(%ebp)
  40616d:	65 c5 0c 04          	lds    %gs:(%esp,%eax,1),%ecx
  406171:	04 00                	add    $0x0,%al
  406173:	00 14 00             	add    %dl,(%eax,%eax,1)
  406176:	00 00                	add    %al,(%eax)
  406178:	00 00                	add    %al,(%eax)
  40617a:	00 00                	add    %al,(%eax)
  40617c:	01 7a 52             	add    %edi,0x52(%edx)
  40617f:	00 01                	add    %al,(%ecx)
  406181:	7c 08                	jl     40618b <.eh_frame+0x6f>
  406183:	01 1b                	add    %ebx,(%ebx)
  406185:	0c 04                	or     $0x4,%al
  406187:	04 88                	add    $0x88,%al
  406189:	01 00                	add    %eax,(%eax)
  40618b:	00 3c 00             	add    %bh,(%eax,%eax,1)
  40618e:	00 00                	add    %al,(%eax)
  406190:	1c 00                	sbb    $0x0,%al
  406192:	00 00                	add    %al,(%eax)
  406194:	0c b3                	or     $0xb3,%al
  406196:	ff                   	(bad)  
  406197:	ff 9f 03 00 00 00    	lcall  *0x3(%edi)
  40619d:	41                   	inc    %ecx
  40619e:	0e                   	push   %cs
  40619f:	08 85 02 42 0d 05    	or     %al,0x50d4202(%ebp)
  4061a5:	46                   	inc    %esi
  4061a6:	87 03                	xchg   %eax,(%ebx)
  4061a8:	86 04 83             	xchg   %al,(%ebx,%eax,4)
  4061ab:	05 03 2d 01 0a       	add    $0xa012d03,%eax
  4061b0:	c3                   	ret    
  4061b1:	41                   	inc    %ecx
  4061b2:	c6 41 c7 41          	movb   $0x41,-0x39(%ecx)
  4061b6:	c5 0c 04             	lds    (%esp,%eax,1),%ecx
  4061b9:	04 47                	add    $0x47,%al
  4061bb:	0b 03                	or     (%ebx),%eax
  4061bd:	c9                   	leave  
  4061be:	01 0a                	add    %ecx,(%edx)
  4061c0:	c3                   	ret    
  4061c1:	41                   	inc    %ecx
  4061c2:	c6 41 c7 41          	movb   $0x41,-0x39(%ecx)
  4061c6:	c5 0c 04             	lds    (%esp,%eax,1),%ecx
  4061c9:	04 41                	add    $0x41,%al
  4061cb:	0b 14 00             	or     (%eax,%eax,1),%edx
  4061ce:	00 00                	add    %al,(%eax)
  4061d0:	00 00                	add    %al,(%eax)
  4061d2:	00 00                	add    %al,(%eax)
  4061d4:	01 7a 52             	add    %edi,0x52(%edx)
  4061d7:	00 01                	add    %al,(%ecx)
  4061d9:	7c 08                	jl     4061e3 <.eh_frame+0xc7>
  4061db:	01 1b                	add    %ebx,(%ebx)
  4061dd:	0c 04                	or     $0x4,%al
  4061df:	04 88                	add    $0x88,%al
  4061e1:	01 00                	add    %eax,(%eax)
  4061e3:	00 24 00             	add    %ah,(%eax,%eax,1)
  4061e6:	00 00                	add    %al,(%eax)
  4061e8:	1c 00                	sbb    $0x0,%al
  4061ea:	00 00                	add    %al,(%eax)
  4061ec:	54                   	push   %esp
  4061ed:	b6 ff                	mov    $0xff,%dh
  4061ef:	ff 07                	incl   (%edi)
  4061f1:	01 00                	add    %eax,(%eax)
  4061f3:	00 00                	add    %al,(%eax)
  4061f5:	5d                   	pop    %ebp
  4061f6:	0e                   	push   %cs
  4061f7:	08 83 02 02 48 0c    	or     %al,0xc480202(%ebx)
  4061fd:	05 0c 85 03 02       	add    $0x203850c,%eax
  406202:	41                   	inc    %ecx
  406203:	c5 0c 04             	lds    (%esp,%eax,1),%ecx
  406206:	08 02                	or     %al,(%edx)
  406208:	5f                   	pop    %edi
  406209:	c3                   	ret    
  40620a:	0e                   	push   %cs
  40620b:	04 14                	add    $0x14,%al
  40620d:	00 00                	add    %al,(%eax)
  40620f:	00 00                	add    %al,(%eax)
  406211:	00 00                	add    %al,(%eax)
  406213:	00 01                	add    %al,(%ecx)
  406215:	7a 52                	jp     406269 <.eh_frame+0x14d>
  406217:	00 01                	add    %al,(%ecx)
  406219:	7c 08                	jl     406223 <.eh_frame+0x107>
  40621b:	01 1b                	add    %ebx,(%ebx)
  40621d:	0c 04                	or     $0x4,%al
  40621f:	04 88                	add    $0x88,%al
  406221:	01 00                	add    %eax,(%eax)
  406223:	00 14 00             	add    %dl,(%eax,%eax,1)
  406226:	00 00                	add    %al,(%eax)
  406228:	1c 00                	sbb    $0x0,%al
  40622a:	00 00                	add    %al,(%eax)
  40622c:	24 b7                	and    $0xb7,%al
  40622e:	ff                   	(bad)  
  40622f:	ff 2c 00             	ljmp   *(%eax,%eax,1)
  406232:	00 00                	add    %al,(%eax)
  406234:	00 4e 0e             	add    %cl,0xe(%esi)
  406237:	10 5c 0e 04          	adc    %bl,0x4(%esi,%ecx,1)
  40623b:	00 20                	add    %ah,(%eax)
  40623d:	00 00                	add    %al,(%eax)
  40623f:	00 34 00             	add    %dh,(%eax,%eax,1)
  406242:	00 00                	add    %al,(%eax)
  406244:	3c b7                	cmp    $0xb7,%al
  406246:	ff                   	(bad)  
  406247:	ff 46 00             	incl   0x0(%esi)
  40624a:	00 00                	add    %al,(%eax)
  40624c:	00 41 0e             	add    %al,0xe(%ecx)
  40624f:	08 83 02 43 0e 20    	or     %al,0x200e4302(%ebx)
  406255:	6a 0a                	push   $0xa
  406257:	0e                   	push   %cs
  406258:	08 41 c3             	or     %al,-0x3d(%ecx)
  40625b:	0e                   	push   %cs
  40625c:	04 41                	add    $0x41,%al
  40625e:	0b 00                	or     (%eax),%eax
  406260:	10 00                	adc    %al,(%eax)
  406262:	00 00                	add    %al,(%eax)
  406264:	58                   	pop    %eax
  406265:	00 00                	add    %al,(%eax)
  406267:	00 68 b7             	add    %ch,-0x49(%eax)
  40626a:	ff                   	(bad)  
  40626b:	ff 1c 00             	lcall  *(%eax,%eax,1)
  40626e:	00 00                	add    %al,(%eax)
  406270:	00 00                	add    %al,(%eax)
  406272:	00 00                	add    %al,(%eax)
  406274:	14 00                	adc    $0x0,%al
  406276:	00 00                	add    %al,(%eax)
  406278:	00 00                	add    %al,(%eax)
  40627a:	00 00                	add    %al,(%eax)
  40627c:	01 7a 52             	add    %edi,0x52(%edx)
  40627f:	00 01                	add    %al,(%ecx)
  406281:	7c 08                	jl     40628b <.eh_frame+0x16f>
  406283:	01 1b                	add    %ebx,(%ebx)
  406285:	0c 04                	or     $0x4,%al
  406287:	04 88                	add    $0x88,%al
  406289:	01 00                	add    %eax,(%eax)
  40628b:	00 1c 00             	add    %bl,(%eax,%eax,1)
  40628e:	00 00                	add    %al,(%eax)
  406290:	1c 00                	sbb    $0x0,%al
  406292:	00 00                	add    %al,(%eax)
  406294:	5c                   	pop    %esp
  406295:	b7 ff                	mov    $0xff,%bh
  406297:	ff 43 00             	incl   0x0(%ebx)
  40629a:	00 00                	add    %al,(%eax)
  40629c:	00 43 0e             	add    %al,0xe(%ebx)
  40629f:	20 55 0a             	and    %dl,0xa(%ebp)
  4062a2:	0e                   	push   %cs
  4062a3:	04 48                	add    $0x48,%al
  4062a5:	0b 60 0e             	or     0xe(%eax),%esp
  4062a8:	04 00                	add    $0x0,%al
  4062aa:	00 00                	add    %al,(%eax)
  4062ac:	38 00                	cmp    %al,(%eax)
  4062ae:	00 00                	add    %al,(%eax)
  4062b0:	3c 00                	cmp    $0x0,%al
  4062b2:	00 00                	add    %al,(%eax)
  4062b4:	8c b7 ff ff 83 00    	mov    %?,0x83ffff(%edi)
  4062ba:	00 00                	add    %al,(%eax)
  4062bc:	00 41 0e             	add    %al,0xe(%ecx)
  4062bf:	08 86 02 41 0e 0c    	or     %al,0xc0e4102(%esi)
  4062c5:	83 03 43             	addl   $0x43,(%ebx)
  4062c8:	0e                   	push   %cs
  4062c9:	20 64 0a 0e          	and    %ah,0xe(%edx,%ecx,1)
  4062cd:	0c 46                	or     $0x46,%al
  4062cf:	c3                   	ret    
  4062d0:	0e                   	push   %cs
  4062d1:	08 41 c6             	or     %al,-0x3a(%ecx)
  4062d4:	0e                   	push   %cs
  4062d5:	04 43                	add    $0x43,%al
  4062d7:	0b 68 0a             	or     0xa(%eax),%ebp
  4062da:	0e                   	push   %cs
  4062db:	0c 46                	or     $0x46,%al
  4062dd:	c3                   	ret    
  4062de:	0e                   	push   %cs
  4062df:	08 41 c6             	or     %al,-0x3a(%ecx)
  4062e2:	0e                   	push   %cs
  4062e3:	04 43                	add    $0x43,%al
  4062e5:	0b 00                	or     (%eax),%eax
  4062e7:	00 10                	add    %dl,(%eax)
  4062e9:	00 00                	add    %al,(%eax)
  4062eb:	00 78 00             	add    %bh,0x0(%eax)
  4062ee:	00 00                	add    %al,(%eax)
  4062f0:	e0 b7                	loopne 4062a9 <.eh_frame+0x18d>
  4062f2:	ff                   	(bad)  
  4062f3:	ff 03                	incl   (%ebx)
  4062f5:	00 00                	add    %al,(%eax)
  4062f7:	00 00                	add    %al,(%eax)
  4062f9:	00 00                	add    %al,(%eax)
  4062fb:	00 14 00             	add    %dl,(%eax,%eax,1)
  4062fe:	00 00                	add    %al,(%eax)
  406300:	00 00                	add    %al,(%eax)
  406302:	00 00                	add    %al,(%eax)
  406304:	01 7a 52             	add    %edi,0x52(%edx)
  406307:	00 01                	add    %al,(%ecx)
  406309:	7c 08                	jl     406313 <.eh_frame+0x1f7>
  40630b:	01 1b                	add    %ebx,(%ebx)
  40630d:	0c 04                	or     $0x4,%al
  40630f:	04 88                	add    $0x88,%al
  406311:	01 00                	add    %eax,(%eax)
  406313:	00 38                	add    %bh,(%eax)
  406315:	00 00                	add    %al,(%eax)
  406317:	00 1c 00             	add    %bl,(%eax,%eax,1)
  40631a:	00 00                	add    %al,(%eax)
  40631c:	c4 b7 ff ff 60 00    	les    0x60ffff(%edi),%esi
  406322:	00 00                	add    %al,(%eax)
  406324:	00 41 0e             	add    %al,0xe(%ecx)
  406327:	08 86 02 41 0e 0c    	or     %al,0xc0e4102(%esi)
  40632d:	83 03 43             	addl   $0x43,(%ebx)
  406330:	0e                   	push   %cs
  406331:	20 4c 0e 1c          	and    %cl,0x1c(%esi,%ecx,1)
  406335:	49                   	dec    %ecx
  406336:	0e                   	push   %cs
  406337:	20 50 0e             	and    %dl,0xe(%eax)
  40633a:	1c 43                	sbb    $0x43,%al
  40633c:	0e                   	push   %cs
  40633d:	20 6a 0e             	and    %ch,0xe(%edx)
  406340:	1c 43                	sbb    $0x43,%al
  406342:	0e                   	push   %cs
  406343:	20 43 0e             	and    %al,0xe(%ebx)
  406346:	0c 41                	or     $0x41,%al
  406348:	c3                   	ret    
  406349:	0e                   	push   %cs
  40634a:	08 41 c6             	or     %al,-0x3a(%ecx)
  40634d:	0e                   	push   %cs
  40634e:	04 00                	add    $0x0,%al
  406350:	44                   	inc    %esp
  406351:	00 00                	add    %al,(%eax)
  406353:	00 58 00             	add    %bl,0x0(%eax)
  406356:	00 00                	add    %al,(%eax)
  406358:	e8 b7 ff ff 82       	call   83406314 <.debug_frame+0x82ff6314>
  40635d:	00 00                	add    %al,(%eax)
  40635f:	00 00                	add    %al,(%eax)
  406361:	41                   	inc    %ecx
  406362:	0e                   	push   %cs
  406363:	08 86 02 41 0e 0c    	or     %al,0xc0e4102(%esi)
  406369:	83 03 45             	addl   $0x45,(%ebx)
  40636c:	0e                   	push   %cs
  40636d:	20 4c 0a 0e          	and    %cl,0xe(%edx,%ecx,1)
  406371:	0c 43                	or     $0x43,%al
  406373:	c3                   	ret    
  406374:	0e                   	push   %cs
  406375:	08 41 c6             	or     %al,-0x3a(%ecx)
  406378:	0e                   	push   %cs
  406379:	04 49                	add    $0x49,%al
  40637b:	0b 73 0e             	or     0xe(%ebx),%esi
  40637e:	1c 48                	sbb    $0x48,%al
  406380:	0e                   	push   %cs
  406381:	20 55 0e             	and    %dl,0xe(%ebp)
  406384:	1c 43                	sbb    $0x43,%al
  406386:	0e                   	push   %cs
  406387:	20 45 0a             	and    %al,0xa(%ebp)
  40638a:	0e                   	push   %cs
  40638b:	0c 41                	or     $0x41,%al
  40638d:	c3                   	ret    
  40638e:	0e                   	push   %cs
  40638f:	08 41 c6             	or     %al,-0x3a(%ecx)
  406392:	0e                   	push   %cs
  406393:	04 41                	add    $0x41,%al
  406395:	0b 00                	or     (%eax),%eax
  406397:	00 3c 00             	add    %bh,(%eax,%eax,1)
  40639a:	00 00                	add    %al,(%eax)
  40639c:	a0 00 00 00 30       	mov    0x30000000,%al
  4063a1:	b8 ff ff 9b 00       	mov    $0x9bffff,%eax
  4063a6:	00 00                	add    %al,(%eax)
  4063a8:	00 41 0e             	add    %al,0xe(%ecx)
  4063ab:	08 83 02 43 0e 20    	or     %al,0x200e4302(%ebx)
  4063b1:	50                   	push   %eax
  4063b2:	0a 0e                	or     (%esi),%cl
  4063b4:	08 43 c3             	or     %al,-0x3d(%ebx)
  4063b7:	0e                   	push   %cs
  4063b8:	04 49                	add    $0x49,%al
  4063ba:	0b 4c 0e 1c          	or     0x1c(%esi,%ecx,1),%ecx
  4063be:	49                   	dec    %ecx
  4063bf:	0e                   	push   %cs
  4063c0:	20 67 0e             	and    %ah,0xe(%edi)
  4063c3:	1c 43                	sbb    $0x43,%al
  4063c5:	0e                   	push   %cs
  4063c6:	20 43 0a             	and    %al,0xa(%ebx)
  4063c9:	0e                   	push   %cs
  4063ca:	08 43 c3             	or     %al,-0x3d(%ebx)
  4063cd:	0e                   	push   %cs
  4063ce:	04 4b                	add    $0x4b,%al
  4063d0:	0b 5a 0e             	or     0xe(%edx),%ebx
  4063d3:	1c 43                	sbb    $0x43,%al
  4063d5:	0e                   	push   %cs
  4063d6:	20 00                	and    %al,(%eax)
  4063d8:	28 00                	sub    %al,(%eax)
  4063da:	00 00                	add    %al,(%eax)
  4063dc:	e0 00                	loopne 4063de <.eh_frame+0x2c2>
  4063de:	00 00                	add    %al,(%eax)
  4063e0:	90                   	nop
  4063e1:	b8 ff ff 97 00       	mov    $0x97ffff,%eax
  4063e6:	00 00                	add    %al,(%eax)
  4063e8:	00 43 0e             	add    %al,0xe(%ebx)
  4063eb:	20 61 0a             	and    %ah,0xa(%ecx)
  4063ee:	0e                   	push   %cs
  4063ef:	04 41                	add    $0x41,%al
  4063f1:	0b 69 0e             	or     0xe(%ecx),%ebp
  4063f4:	1c 43                	sbb    $0x43,%al
  4063f6:	0e                   	push   %cs
  4063f7:	20 5d 0a             	and    %bl,0xa(%ebp)
  4063fa:	0e                   	push   %cs
  4063fb:	04 42                	add    $0x42,%al
  4063fd:	0b 4c 0e 1c          	or     0x1c(%esi,%ecx,1),%ecx
  406401:	43                   	inc    %ebx
  406402:	0e                   	push   %cs
  406403:	20 14 00             	and    %dl,(%eax,%eax,1)
  406406:	00 00                	add    %al,(%eax)
  406408:	00 00                	add    %al,(%eax)
  40640a:	00 00                	add    %al,(%eax)
  40640c:	01 7a 52             	add    %edi,0x52(%edx)
  40640f:	00 01                	add    %al,(%ecx)
  406411:	7c 08                	jl     40641b <.eh_frame+0x2ff>
  406413:	01 1b                	add    %ebx,(%ebx)
  406415:	0c 04                	or     $0x4,%al
  406417:	04 88                	add    $0x88,%al
  406419:	01 00                	add    %eax,(%eax)
  40641b:	00 1c 00             	add    %bl,(%eax,%eax,1)
  40641e:	00 00                	add    %al,(%eax)
  406420:	1c 00                	sbb    $0x0,%al
  406422:	00 00                	add    %al,(%eax)
  406424:	ec                   	in     (%dx),%al
  406425:	b8 ff ff 4a 00       	mov    $0x4affff,%eax
  40642a:	00 00                	add    %al,(%eax)
  40642c:	00 41 0e             	add    %al,0xe(%ecx)
  40642f:	08 86 02 41 0e 0c    	or     %al,0xc0e4102(%esi)
  406435:	83 03 43             	addl   $0x43,(%ebx)
  406438:	0e                   	push   %cs
  406439:	20 00                	and    %al,(%eax)
  40643b:	00 64 00 00          	add    %ah,0x0(%eax,%eax,1)
  40643f:	00 3c 00             	add    %bh,(%eax,%eax,1)
  406442:	00 00                	add    %al,(%eax)
  406444:	1c b9                	sbb    $0xb9,%al
  406446:	ff                   	(bad)  
  406447:	ff f0                	push   %eax
  406449:	00 00                	add    %al,(%eax)
  40644b:	00 00                	add    %al,(%eax)
  40644d:	41                   	inc    %ecx
  40644e:	0e                   	push   %cs
  40644f:	08 85 02 41 0e 0c    	or     %al,0xc0e4102(%ebp)
  406455:	87 03                	xchg   %eax,(%ebx)
  406457:	43                   	inc    %ebx
  406458:	0e                   	push   %cs
  406459:	10 86 04 41 0e 14    	adc    %al,0x140e4104(%esi)
  40645f:	83 05 47 0e 60 58 0e 	addl   $0xe,0x58600e47
  406466:	54                   	push   %esp
  406467:	43                   	inc    %ebx
  406468:	0e                   	push   %cs
  406469:	60                   	pusha  
  40646a:	69 0a 0e 14 41 c3    	imul   $0xc341140e,(%edx),%ecx
  406470:	0e                   	push   %cs
  406471:	10 41 c6             	adc    %al,-0x3a(%ecx)
  406474:	0e                   	push   %cs
  406475:	0c 41                	or     $0x41,%al
  406477:	c7                   	(bad)  
  406478:	0e                   	push   %cs
  406479:	08 41 c5             	or     %al,-0x3b(%ecx)
  40647c:	0e                   	push   %cs
  40647d:	04 4b                	add    $0x4b,%al
  40647f:	0b 64 0e 50          	or     0x50(%esi,%ecx,1),%esp
  406483:	43                   	inc    %ebx
  406484:	0e                   	push   %cs
  406485:	60                   	pusha  
  406486:	02 46 0e             	add    0xe(%esi),%al
  406489:	50                   	push   %eax
  40648a:	43                   	inc    %ebx
  40648b:	0e                   	push   %cs
  40648c:	60                   	pusha  
  40648d:	43                   	inc    %ebx
  40648e:	0a 0e                	or     (%esi),%cl
  406490:	14 41                	adc    $0x41,%al
  406492:	c3                   	ret    
  406493:	0e                   	push   %cs
  406494:	10 41 c6             	adc    %al,-0x3a(%ecx)
  406497:	0e                   	push   %cs
  406498:	0c 41                	or     $0x41,%al
  40649a:	c7                   	(bad)  
  40649b:	0e                   	push   %cs
  40649c:	08 41 c5             	or     %al,-0x3b(%ecx)
  40649f:	0e                   	push   %cs
  4064a0:	04 41                	add    $0x41,%al
  4064a2:	0b 00                	or     (%eax),%eax
  4064a4:	34 00                	xor    $0x0,%al
  4064a6:	00 00                	add    %al,(%eax)
  4064a8:	a4                   	movsb  %ds:(%esi),%es:(%edi)
  4064a9:	00 00                	add    %al,(%eax)
  4064ab:	00 a4 b9 ff ff cb 01 	add    %ah,0x1cbffff(%ecx,%edi,4)
  4064b2:	00 00                	add    %al,(%eax)
  4064b4:	00 6a 0e             	add    %ch,0xe(%edx)
  4064b7:	08 87 02 41 0e 0c    	or     %al,0xc0e4102(%edi)
  4064bd:	86 03                	xchg   %al,(%ebx)
  4064bf:	41                   	inc    %ecx
  4064c0:	0e                   	push   %cs
  4064c1:	10 83 04 43 0e 30    	adc    %al,0x300e4304(%ebx)
  4064c7:	02 e4                	add    %ah,%ah
  4064c9:	0a 0e                	or     (%esi),%cl
  4064cb:	10 41 c3             	adc    %al,-0x3d(%ecx)
  4064ce:	0e                   	push   %cs
  4064cf:	0c 41                	or     $0x41,%al
  4064d1:	c6                   	(bad)  
  4064d2:	0e                   	push   %cs
  4064d3:	08 41 c7             	or     %al,-0x39(%ecx)
  4064d6:	0e                   	push   %cs
  4064d7:	04 4a                	add    $0x4a,%al
  4064d9:	0b 00                	or     (%eax),%eax
  4064db:	00 14 00             	add    %dl,(%eax,%eax,1)
  4064de:	00 00                	add    %al,(%eax)
  4064e0:	00 00                	add    %al,(%eax)
  4064e2:	00 00                	add    %al,(%eax)
  4064e4:	01 7a 52             	add    %edi,0x52(%edx)
  4064e7:	00 01                	add    %al,(%ecx)
  4064e9:	7c 08                	jl     4064f3 <.eh_frame+0x3d7>
  4064eb:	01 1b                	add    %ebx,(%ebx)
  4064ed:	0c 04                	or     $0x4,%al
  4064ef:	04 88                	add    $0x88,%al
  4064f1:	01 00                	add    %eax,(%eax)
  4064f3:	00 18                	add    %bl,(%eax)
  4064f5:	00 00                	add    %al,(%eax)
  4064f7:	00 1c 00             	add    %bl,(%eax,%eax,1)
  4064fa:	00 00                	add    %al,(%eax)
  4064fc:	54                   	push   %esp
  4064fd:	bb ff ff 6c 00       	mov    $0x6cffff,%ebx
  406502:	00 00                	add    %al,(%eax)
  406504:	00 43 0e             	add    %al,0xe(%ebx)
  406507:	20 02                	and    %al,(%edx)
  406509:	41                   	inc    %ecx
  40650a:	0a 0e                	or     (%esi),%cl
  40650c:	04 41                	add    $0x41,%al
  40650e:	0b 00                	or     (%eax),%eax
  406510:	14 00                	adc    $0x0,%al
  406512:	00 00                	add    %al,(%eax)
  406514:	00 00                	add    %al,(%eax)
  406516:	00 00                	add    %al,(%eax)
  406518:	01 7a 52             	add    %edi,0x52(%edx)
  40651b:	00 01                	add    %al,(%ecx)
  40651d:	7c 08                	jl     406527 <.eh_frame+0x40b>
  40651f:	01 1b                	add    %ebx,(%ebx)
  406521:	0c 04                	or     $0x4,%al
  406523:	04 88                	add    $0x88,%al
  406525:	01 00                	add    %eax,(%eax)
  406527:	00 34 00             	add    %dh,(%eax,%eax,1)
  40652a:	00 00                	add    %al,(%eax)
  40652c:	1c 00                	sbb    $0x0,%al
  40652e:	00 00                	add    %al,(%eax)
  406530:	90                   	nop
  406531:	bb ff ff 93 00       	mov    $0x93ffff,%ebx
  406536:	00 00                	add    %al,(%eax)
  406538:	00 49 0e             	add    %cl,0xe(%ecx)
  40653b:	08 86 02 41 0e 0c    	or     %al,0xc0e4102(%esi)
  406541:	83 03 02             	addl   $0x2,(%ebx)
  406544:	49                   	dec    %ecx
  406545:	0a c3                	or     %bl,%al
  406547:	0e                   	push   %cs
  406548:	08 41 c6             	or     %al,-0x3a(%ecx)
  40654b:	0e                   	push   %cs
  40654c:	04 41                	add    $0x41,%al
  40654e:	0b 73 c3             	or     -0x3d(%ebx),%esi
  406551:	0e                   	push   %cs
  406552:	08 41 c6             	or     %al,-0x3a(%ecx)
  406555:	0e                   	push   %cs
  406556:	04 46                	add    $0x46,%al
  406558:	0e                   	push   %cs
  406559:	0c 83                	or     $0x83,%al
  40655b:	03 86 02 00 00 28    	add    0x28000002(%esi),%eax
  406561:	00 00                	add    %al,(%eax)
  406563:	00 54 00 00          	add    %dl,0x0(%eax,%eax,1)
  406567:	00 f8                	add    %bh,%al
  406569:	bb ff ff 63 00       	mov    $0x63ffff,%ebx
  40656e:	00 00                	add    %al,(%eax)
  406570:	00 45 0e             	add    %al,0xe(%ebp)
  406573:	08 86 02 41 0e 0c    	or     %al,0xc0e4102(%esi)
  406579:	83 03 45             	addl   $0x45,(%ebx)
  40657c:	0e                   	push   %cs
  40657d:	20 02                	and    %al,(%edx)
  40657f:	48                   	dec    %eax
  406580:	0e                   	push   %cs
  406581:	0c 41                	or     $0x41,%al
  406583:	c3                   	ret    
  406584:	0e                   	push   %cs
  406585:	08 41 c6             	or     %al,-0x3a(%ecx)
  406588:	0e                   	push   %cs
  406589:	04 00                	add    $0x0,%al
  40658b:	00 6c 00 00          	add    %ch,0x0(%eax,%eax,1)
  40658f:	00 80 00 00 00 3c    	add    %al,0x3c000000(%eax)
  406595:	bc ff ff b5 02       	mov    $0x2b5ffff,%esp
  40659a:	00 00                	add    %al,(%eax)
  40659c:	00 41 0e             	add    %al,0xe(%ecx)
  40659f:	08 85 02 41 0e 0c    	or     %al,0xc0e4102(%ebp)
  4065a5:	87 03                	xchg   %eax,(%ebx)
  4065a7:	43                   	inc    %ebx
  4065a8:	0e                   	push   %cs
  4065a9:	10 86 04 41 0e 14    	adc    %al,0x140e4104(%esi)
  4065af:	83 05 43 0e 50 03 6e 	addl   $0x6e,0x3500e43
  4065b6:	01 0a                	add    %ecx,(%edx)
  4065b8:	0e                   	push   %cs
  4065b9:	14 43                	adc    $0x43,%al
  4065bb:	c3                   	ret    
  4065bc:	0e                   	push   %cs
  4065bd:	10 41 c6             	adc    %al,-0x3a(%ecx)
  4065c0:	0e                   	push   %cs
  4065c1:	0c 41                	or     $0x41,%al
  4065c3:	c7                   	(bad)  
  4065c4:	0e                   	push   %cs
  4065c5:	08 41 c5             	or     %al,-0x3b(%ecx)
  4065c8:	0e                   	push   %cs
  4065c9:	04 43                	add    $0x43,%al
  4065cb:	0b 02                	or     (%edx),%eax
  4065cd:	4d                   	dec    %ebp
  4065ce:	0a 0e                	or     (%esi),%cl
  4065d0:	14 44                	adc    $0x44,%al
  4065d2:	c3                   	ret    
  4065d3:	0e                   	push   %cs
  4065d4:	10 41 c6             	adc    %al,-0x3a(%ecx)
  4065d7:	0e                   	push   %cs
  4065d8:	0c 41                	or     $0x41,%al
  4065da:	c7                   	(bad)  
  4065db:	0e                   	push   %cs
  4065dc:	08 41 c5             	or     %al,-0x3b(%ecx)
  4065df:	0e                   	push   %cs
  4065e0:	04 41                	add    $0x41,%al
  4065e2:	0b 02                	or     (%edx),%eax
  4065e4:	43                   	inc    %ebx
  4065e5:	0a 0e                	or     (%esi),%cl
  4065e7:	14 44                	adc    $0x44,%al
  4065e9:	c3                   	ret    
  4065ea:	0e                   	push   %cs
  4065eb:	10 41 c6             	adc    %al,-0x3a(%ecx)
  4065ee:	0e                   	push   %cs
  4065ef:	0c 41                	or     $0x41,%al
  4065f1:	c7                   	(bad)  
  4065f2:	0e                   	push   %cs
  4065f3:	08 41 c5             	or     %al,-0x3b(%ecx)
  4065f6:	0e                   	push   %cs
  4065f7:	04 41                	add    $0x41,%al
  4065f9:	0b 00                	or     (%eax),%eax
  4065fb:	00 54 00 00          	add    %dl,0x0(%eax,%eax,1)
  4065ff:	00 f0                	add    %dh,%al
  406601:	00 00                	add    %al,(%eax)
  406603:	00 8c be ff ff 1a 02 	add    %cl,0x21affff(%esi,%edi,4)
  40660a:	00 00                	add    %al,(%eax)
  40660c:	00 41 0e             	add    %al,0xe(%ecx)
  40660f:	08 85 02 41 0e 0c    	or     %al,0xc0e4102(%ebp)
  406615:	87 03                	xchg   %eax,(%ebx)
  406617:	43                   	inc    %ebx
  406618:	0e                   	push   %cs
  406619:	10 86 04 41 0e 14    	adc    %al,0x140e4104(%esi)
  40661f:	83 05 43 0e 40 02 a0 	addl   $0xffffffa0,0x2400e43
  406626:	0a 0e                	or     (%esi),%cl
  406628:	14 41                	adc    $0x41,%al
  40662a:	c3                   	ret    
  40662b:	0e                   	push   %cs
  40662c:	10 41 c6             	adc    %al,-0x3a(%ecx)
  40662f:	0e                   	push   %cs
  406630:	0c 41                	or     $0x41,%al
  406632:	c7                   	(bad)  
  406633:	0e                   	push   %cs
  406634:	08 41 c5             	or     %al,-0x3b(%ecx)
  406637:	0e                   	push   %cs
  406638:	04 43                	add    $0x43,%al
  40663a:	0b 02                	or     (%edx),%eax
  40663c:	4b                   	dec    %ebx
  40663d:	0a 0e                	or     (%esi),%cl
  40663f:	14 41                	adc    $0x41,%al
  406641:	c3                   	ret    
  406642:	0e                   	push   %cs
  406643:	10 41 c6             	adc    %al,-0x3a(%ecx)
  406646:	0e                   	push   %cs
  406647:	0c 41                	or     $0x41,%al
  406649:	c7                   	(bad)  
  40664a:	0e                   	push   %cs
  40664b:	08 41 c5             	or     %al,-0x3b(%ecx)
  40664e:	0e                   	push   %cs
  40664f:	04 41                	add    $0x41,%al
  406651:	0b 00                	or     (%eax),%eax
  406653:	00 44 00 00          	add    %al,0x0(%eax,%eax,1)
  406657:	00 48 01             	add    %cl,0x1(%eax)
  40665a:	00 00                	add    %al,(%eax)
  40665c:	54                   	push   %esp
  40665d:	c0 ff ff             	sar    $0xff,%bh
  406660:	5c                   	pop    %esp
  406661:	00 00                	add    %al,(%eax)
  406663:	00 00                	add    %al,(%eax)
  406665:	41                   	inc    %ecx
  406666:	0e                   	push   %cs
  406667:	08 87 02 41 0e 0c    	or     %al,0xc0e4102(%edi)
  40666d:	86 03                	xchg   %al,(%ebx)
  40666f:	43                   	inc    %ebx
  406670:	0e                   	push   %cs
  406671:	10 83 04 45 0e 20    	adc    %al,0x200e4504(%ebx)
  406677:	02 40 0a             	add    0xa(%eax),%al
  40667a:	0e                   	push   %cs
  40667b:	10 43 c3             	adc    %al,-0x3d(%ebx)
  40667e:	0e                   	push   %cs
  40667f:	0c 41                	or     $0x41,%al
  406681:	c6                   	(bad)  
  406682:	0e                   	push   %cs
  406683:	08 41 c7             	or     %al,-0x39(%ecx)
  406686:	0e                   	push   %cs
  406687:	04 41                	add    $0x41,%al
  406689:	0b 43 0e             	or     0xe(%ebx),%eax
  40668c:	10 46 c3             	adc    %al,-0x3d(%esi)
  40668f:	0e                   	push   %cs
  406690:	0c 41                	or     $0x41,%al
  406692:	c6                   	(bad)  
  406693:	0e                   	push   %cs
  406694:	08 41 c7             	or     %al,-0x39(%ecx)
  406697:	0e                   	push   %cs
  406698:	04 00                	add    $0x0,%al
  40669a:	00 00                	add    %al,(%eax)
  40669c:	28 00                	sub    %al,(%eax)
  40669e:	00 00                	add    %al,(%eax)
  4066a0:	90                   	nop
  4066a1:	01 00                	add    %eax,(%eax)
  4066a3:	00 6c c0 ff          	add    %ch,-0x1(%eax,%eax,8)
  4066a7:	ff 49 00             	decl   0x0(%ecx)
  4066aa:	00 00                	add    %al,(%eax)
  4066ac:	00 41 0e             	add    %al,0xe(%ecx)
  4066af:	08 86 02 41 0e 0c    	or     %al,0xc0e4102(%esi)
  4066b5:	83 03 47             	addl   $0x47,(%ebx)
  4066b8:	0e                   	push   %cs
  4066b9:	20 6f 0a             	and    %ch,0xa(%edi)
  4066bc:	0e                   	push   %cs
  4066bd:	0c 41                	or     $0x41,%al
  4066bf:	c3                   	ret    
  4066c0:	0e                   	push   %cs
  4066c1:	08 41 c6             	or     %al,-0x3a(%ecx)
  4066c4:	0e                   	push   %cs
  4066c5:	04 46                	add    $0x46,%al
  4066c7:	0b 2c 00             	or     (%eax,%eax,1),%ebp
  4066ca:	00 00                	add    %al,(%eax)
  4066cc:	bc 01 00 00 90       	mov    $0x90000001,%esp
  4066d1:	c0 ff ff             	sar    $0xff,%bh
  4066d4:	83 08 00             	orl    $0x0,(%eax)
  4066d7:	00 00                	add    %al,(%eax)
  4066d9:	41                   	inc    %ecx
  4066da:	0e                   	push   %cs
  4066db:	08 85 02 42 0d 05    	or     %al,0x50d4202(%ebp)
  4066e1:	43                   	inc    %ebx
  4066e2:	87 03                	xchg   %eax,(%ebx)
  4066e4:	86 04 83             	xchg   %al,(%ebx,%eax,4)
  4066e7:	05 03 64 03 0a       	add    $0xa036403,%eax
  4066ec:	c3                   	ret    
  4066ed:	41                   	inc    %ecx
  4066ee:	c6 41 c7 41          	movb   $0x41,-0x39(%ecx)
  4066f2:	c5 0c 04             	lds    (%esp,%eax,1),%ecx
  4066f5:	04 43                	add    $0x43,%al
  4066f7:	0b 2c 00             	or     (%eax,%eax,1),%ebp
  4066fa:	00 00                	add    %al,(%eax)
  4066fc:	ec                   	in     (%dx),%al
  4066fd:	01 00                	add    %eax,(%eax)
  4066ff:	00 f0                	add    %dh,%al
  406701:	c8 ff ff e3          	enter  $0xffff,$0xe3
  406705:	00 00                	add    %al,(%eax)
  406707:	00 00                	add    %al,(%eax)
  406709:	41                   	inc    %ecx
  40670a:	0e                   	push   %cs
  40670b:	08 85 02 42 0d 05    	or     %al,0x50d4202(%ebp)
  406711:	46                   	inc    %esi
  406712:	87 03                	xchg   %eax,(%ebx)
  406714:	86 04 83             	xchg   %al,(%ebx,%eax,4)
  406717:	05 02 46 0a c3       	add    $0xc30a4602,%eax
  40671c:	41                   	inc    %ecx
  40671d:	c6 41 c7 41          	movb   $0x41,-0x39(%ecx)
  406721:	c5 0c 04             	lds    (%esp,%eax,1),%ecx
  406724:	04 41                	add    $0x41,%al
  406726:	0b 00                	or     (%eax),%eax
  406728:	40                   	inc    %eax
  406729:	00 00                	add    %al,(%eax)
  40672b:	00 1c 02             	add    %bl,(%edx,%eax,1)
  40672e:	00 00                	add    %al,(%eax)
  406730:	b0 c9                	mov    $0xc9,%al
  406732:	ff                   	(bad)  
  406733:	ff 5f 00             	lcall  *0x0(%edi)
  406736:	00 00                	add    %al,(%eax)
  406738:	00 41 0e             	add    %al,0xe(%ecx)
  40673b:	08 87 02 41 0e 0c    	or     %al,0xc0e4102(%edi)
  406741:	86 03                	xchg   %al,(%ebx)
  406743:	41                   	inc    %ecx
  406744:	0e                   	push   %cs
  406745:	10 83 04 43 0e 20    	adc    %al,0x200e4304(%ebx)
  40674b:	4f                   	dec    %edi
  40674c:	0a 0e                	or     (%esi),%cl
  40674e:	10 41 c3             	adc    %al,-0x3d(%ecx)
  406751:	0e                   	push   %cs
  406752:	0c 41                	or     $0x41,%al
  406754:	c6                   	(bad)  
  406755:	0e                   	push   %cs
  406756:	08 41 c7             	or     %al,-0x39(%ecx)
  406759:	0e                   	push   %cs
  40675a:	04 48                	add    $0x48,%al
  40675c:	0b 77 0e             	or     0xe(%edi),%esi
  40675f:	10 41 c3             	adc    %al,-0x3d(%ecx)
  406762:	0e                   	push   %cs
  406763:	0c 41                	or     $0x41,%al
  406765:	c6                   	(bad)  
  406766:	0e                   	push   %cs
  406767:	08 41 c7             	or     %al,-0x39(%ecx)
  40676a:	0e                   	push   %cs
  40676b:	04 14                	add    $0x14,%al
  40676d:	00 00                	add    %al,(%eax)
  40676f:	00 00                	add    %al,(%eax)
  406771:	00 00                	add    %al,(%eax)
  406773:	00 01                	add    %al,(%ecx)
  406775:	7a 52                	jp     4067c9 <.eh_frame+0x6ad>
  406777:	00 01                	add    %al,(%ecx)
  406779:	7c 08                	jl     406783 <.eh_frame+0x667>
  40677b:	01 1b                	add    %ebx,(%ebx)
  40677d:	0c 04                	or     $0x4,%al
  40677f:	04 88                	add    $0x88,%al
  406781:	01 00                	add    %eax,(%eax)
  406783:	00 3c 00             	add    %bh,(%eax,%eax,1)
  406786:	00 00                	add    %al,(%eax)
  406788:	1c 00                	sbb    $0x0,%al
  40678a:	00 00                	add    %al,(%eax)
  40678c:	b4 c9                	mov    $0xc9,%ah
  40678e:	ff                   	(bad)  
  40678f:	ff f4                	push   %esp
  406791:	03 00                	add    (%eax),%eax
  406793:	00 00                	add    %al,(%eax)
  406795:	41                   	inc    %ecx
  406796:	0e                   	push   %cs
  406797:	08 85 02 42 0d 05    	or     %al,0x50d4202(%ebp)
  40679d:	46                   	inc    %esi
  40679e:	87 03                	xchg   %eax,(%ebx)
  4067a0:	86 04 83             	xchg   %al,(%ebx,%eax,4)
  4067a3:	05 02 b2 0a c3       	add    $0xc30ab202,%eax
  4067a8:	43                   	inc    %ebx
  4067a9:	c6 41 c7 41          	movb   $0x41,-0x39(%ecx)
  4067ad:	c5 0c 04             	lds    (%esp,%eax,1),%ecx
  4067b0:	04 41                	add    $0x41,%al
  4067b2:	0b 03                	or     (%ebx),%eax
  4067b4:	50                   	push   %eax
  4067b5:	02 0a                	add    (%edx),%cl
  4067b7:	c3                   	ret    
  4067b8:	41                   	inc    %ecx
  4067b9:	c6 41 c7 41          	movb   $0x41,-0x39(%ecx)
  4067bd:	c5 0c 04             	lds    (%esp,%eax,1),%ecx
  4067c0:	04 41                	add    $0x41,%al
  4067c2:	0b 00                	or     (%eax),%eax
  4067c4:	14 00                	adc    $0x0,%al
  4067c6:	00 00                	add    %al,(%eax)
  4067c8:	00 00                	add    %al,(%eax)
  4067ca:	00 00                	add    %al,(%eax)
  4067cc:	01 7a 52             	add    %edi,0x52(%edx)
  4067cf:	00 01                	add    %al,(%ecx)
  4067d1:	7c 08                	jl     4067db <.eh_frame+0x6bf>
  4067d3:	01 1b                	add    %ebx,(%ebx)
  4067d5:	0c 04                	or     $0x4,%al
  4067d7:	04 88                	add    $0x88,%al
  4067d9:	01 00                	add    %eax,(%eax)
  4067db:	00 40 00             	add    %al,0x0(%eax)
  4067de:	00 00                	add    %al,(%eax)
  4067e0:	1c 00                	sbb    $0x0,%al
  4067e2:	00 00                	add    %al,(%eax)
  4067e4:	5c                   	pop    %esp
  4067e5:	cd ff                	int    $0xff
  4067e7:	ff cf                	dec    %edi
  4067e9:	00 00                	add    %al,(%eax)
  4067eb:	00 00                	add    %al,(%eax)
  4067ed:	41                   	inc    %ecx
  4067ee:	0e                   	push   %cs
  4067ef:	08 86 02 41 0e 0c    	or     %al,0xc0e4102(%esi)
  4067f5:	83 03 48             	addl   $0x48,(%ebx)
  4067f8:	0e                   	push   %cs
  4067f9:	e0 02                	loopne 4067fd <.eh_frame+0x6e1>
  4067fb:	50                   	push   %eax
  4067fc:	0e                   	push   %cs
  4067fd:	d8 02                	fadds  (%edx)
  4067ff:	43                   	inc    %ebx
  406800:	0e                   	push   %cs
  406801:	e0 02                	loopne 406805 <.eh_frame+0x6e9>
  406803:	02 4c 0a 0e          	add    0xe(%edx,%ecx,1),%cl
  406807:	0c 43                	or     $0x43,%al
  406809:	c3                   	ret    
  40680a:	0e                   	push   %cs
  40680b:	08 41 c6             	or     %al,-0x3a(%ecx)
  40680e:	0e                   	push   %cs
  40680f:	04 43                	add    $0x43,%al
  406811:	0b 49 0a             	or     0xa(%ecx),%ecx
  406814:	0e                   	push   %cs
  406815:	0c 43                	or     $0x43,%al
  406817:	c3                   	ret    
  406818:	0e                   	push   %cs
  406819:	08 41 c6             	or     %al,-0x3a(%ecx)
  40681c:	0e                   	push   %cs
  40681d:	04 41                	add    $0x41,%al
  40681f:	0b 4c 00 00          	or     0x0(%eax,%eax,1),%ecx
  406823:	00 60 00             	add    %ah,0x0(%eax)
  406826:	00 00                	add    %al,(%eax)
  406828:	e8 cd ff ff a2       	call   a34067fa <.debug_frame+0xa2ff67fa>
  40682d:	00 00                	add    %al,(%eax)
  40682f:	00 00                	add    %al,(%eax)
  406831:	41                   	inc    %ecx
  406832:	0e                   	push   %cs
  406833:	08 86 02 41 0e 0c    	or     %al,0xc0e4102(%esi)
  406839:	83 03 48             	addl   $0x48,(%ebx)
  40683c:	0e                   	push   %cs
  40683d:	e0 02                	loopne 406841 <.eh_frame+0x725>
  40683f:	50                   	push   %eax
  406840:	0e                   	push   %cs
  406841:	d8 02                	fadds  (%edx)
  406843:	43                   	inc    %ebx
  406844:	0e                   	push   %cs
  406845:	e0 02                	loopne 406849 <.eh_frame+0x72d>
  406847:	02 47 0a             	add    0xa(%edi),%al
  40684a:	0e                   	push   %cs
  40684b:	0c 43                	or     $0x43,%al
  40684d:	c3                   	ret    
  40684e:	0e                   	push   %cs
  40684f:	08 41 c6             	or     %al,-0x3a(%ecx)
  406852:	0e                   	push   %cs
  406853:	04 48                	add    $0x48,%al
  406855:	0b 4d 0a             	or     0xa(%ebp),%ecx
  406858:	0e                   	push   %cs
  406859:	0c 43                	or     $0x43,%al
  40685b:	c3                   	ret    
  40685c:	0e                   	push   %cs
  40685d:	08 41 c6             	or     %al,-0x3a(%ecx)
  406860:	0e                   	push   %cs
  406861:	04 41                	add    $0x41,%al
  406863:	0b 5b 0e             	or     0xe(%ebx),%ebx
  406866:	0c 43                	or     $0x43,%al
  406868:	c3                   	ret    
  406869:	0e                   	push   %cs
  40686a:	08 41 c6             	or     %al,-0x3a(%ecx)
  40686d:	0e                   	push   %cs
  40686e:	04 00                	add    $0x0,%al
  406870:	40                   	inc    %eax
  406871:	00 00                	add    %al,(%eax)
  406873:	00 b0 00 00 00 48    	add    %dh,0x48000000(%eax)
  406879:	ce                   	into   
  40687a:	ff                   	(bad)  
  40687b:	ff b7 01 00 00 00    	pushl  0x1(%edi)
  406881:	41                   	inc    %ecx
  406882:	0e                   	push   %cs
  406883:	08 85 02 41 0e 0c    	or     %al,0xc0e4102(%ebp)
  406889:	87 03                	xchg   %eax,(%ebx)
  40688b:	41                   	inc    %ecx
  40688c:	0e                   	push   %cs
  40688d:	10 86 04 41 0e 14    	adc    %al,0x140e4104(%esi)
  406893:	83 05 46 0e c0 02 03 	addl   $0x3,0x2c00e46
  40689a:	4d                   	dec    %ebp
  40689b:	01 0a                	add    %ecx,(%edx)
  40689d:	0e                   	push   %cs
  40689e:	14 43                	adc    $0x43,%al
  4068a0:	c3                   	ret    
  4068a1:	0e                   	push   %cs
  4068a2:	10 41 c6             	adc    %al,-0x3a(%ecx)
  4068a5:	0e                   	push   %cs
  4068a6:	0c 41                	or     $0x41,%al
  4068a8:	c7                   	(bad)  
  4068a9:	0e                   	push   %cs
  4068aa:	08 41 c5             	or     %al,-0x3b(%ecx)
  4068ad:	0e                   	push   %cs
  4068ae:	04 43                	add    $0x43,%al
  4068b0:	0b 00                	or     (%eax),%eax
  4068b2:	00 00                	add    %al,(%eax)
  4068b4:	20 00                	and    %al,(%eax)
  4068b6:	00 00                	add    %al,(%eax)
  4068b8:	f4                   	hlt    
  4068b9:	00 00                	add    %al,(%eax)
  4068bb:	00 c4                	add    %al,%ah
  4068bd:	cf                   	iret   
  4068be:	ff                   	(bad)  
  4068bf:	ff 46 00             	incl   0x0(%esi)
  4068c2:	00 00                	add    %al,(%eax)
  4068c4:	00 41 0e             	add    %al,0xe(%ecx)
  4068c7:	08 83 02 43 0e 10    	or     %al,0x100e4302(%ebx)
  4068cd:	71 0a                	jno    4068d9 <.eh_frame+0x7bd>
  4068cf:	0e                   	push   %cs
  4068d0:	08 41 c3             	or     %al,-0x3d(%ecx)
  4068d3:	0e                   	push   %cs
  4068d4:	04 41                	add    $0x41,%al
  4068d6:	0b 00                	or     (%eax),%eax
  4068d8:	28 00                	sub    %al,(%eax)
  4068da:	00 00                	add    %al,(%eax)
  4068dc:	18 01                	sbb    %al,(%ecx)
  4068de:	00 00                	add    %al,(%eax)
  4068e0:	f0 cf                	lock iret 
  4068e2:	ff                   	(bad)  
  4068e3:	ff 42 00             	incl   0x0(%edx)
  4068e6:	00 00                	add    %al,(%eax)
  4068e8:	00 41 0e             	add    %al,0xe(%ecx)
  4068eb:	08 83 02 43 0e 20    	or     %al,0x200e4302(%ebx)
  4068f1:	56                   	push   %esi
  4068f2:	0e                   	push   %cs
  4068f3:	1c 43                	sbb    $0x43,%al
  4068f5:	0e                   	push   %cs
  4068f6:	20 51 0a             	and    %dl,0xa(%ecx)
  4068f9:	0e                   	push   %cs
  4068fa:	08 41 c3             	or     %al,-0x3d(%ecx)
  4068fd:	0e                   	push   %cs
  4068fe:	04 41                	add    $0x41,%al
  406900:	0b 00                	or     (%eax),%eax
  406902:	00 00                	add    %al,(%eax)
  406904:	2c 00                	sub    $0x0,%al
  406906:	00 00                	add    %al,(%eax)
  406908:	44                   	inc    %esp
  406909:	01 00                	add    %eax,(%eax)
  40690b:	00 14 d0             	add    %dl,(%eax,%edx,8)
  40690e:	ff                   	(bad)  
  40690f:	ff 58 00             	lcall  *0x0(%eax)
  406912:	00 00                	add    %al,(%eax)
  406914:	00 41 0e             	add    %al,0xe(%ecx)
  406917:	08 83 02 43 0e 20    	or     %al,0x200e4302(%ebx)
  40691d:	56                   	push   %esi
  40691e:	0e                   	push   %cs
  40691f:	1c 43                	sbb    $0x43,%al
  406921:	0e                   	push   %cs
  406922:	20 52 0a             	and    %dl,0xa(%edx)
  406925:	0e                   	push   %cs
  406926:	08 41 c3             	or     %al,-0x3d(%ecx)
  406929:	0e                   	push   %cs
  40692a:	04 41                	add    $0x41,%al
  40692c:	0b 65 0e             	or     0xe(%ebp),%esp
  40692f:	08 41 c3             	or     %al,-0x3d(%ecx)
  406932:	0e                   	push   %cs
  406933:	04 18                	add    $0x18,%al
  406935:	00 00                	add    %al,(%eax)
  406937:	00 74 01 00          	add    %dh,0x0(%ecx,%eax,1)
  40693b:	00 44 d0 ff          	add    %al,-0x1(%eax,%edx,8)
  40693f:	ff 27                	jmp    *(%edi)
  406941:	00 00                	add    %al,(%eax)
  406943:	00 00                	add    %al,(%eax)
  406945:	43                   	inc    %ebx
  406946:	0e                   	push   %cs
  406947:	10 51 0a             	adc    %dl,0xa(%ecx)
  40694a:	0e                   	push   %cs
  40694b:	04 41                	add    $0x41,%al
  40694d:	0b 00                	or     (%eax),%eax
  40694f:	00 34 00             	add    %dh,(%eax,%eax,1)
  406952:	00 00                	add    %al,(%eax)
  406954:	90                   	nop
  406955:	01 00                	add    %eax,(%eax)
  406957:	00 58 d0             	add    %bl,-0x30(%eax)
  40695a:	ff                   	(bad)  
  40695b:	ff 71 00             	pushl  0x0(%ecx)
  40695e:	00 00                	add    %al,(%eax)
  406960:	00 41 0e             	add    %al,0xe(%ecx)
  406963:	08 86 02 41 0e 0c    	or     %al,0xc0e4102(%esi)
  406969:	83 03 43             	addl   $0x43,(%ebx)
  40696c:	0e                   	push   %cs
  40696d:	20 02                	and    %al,(%edx)
  40696f:	52                   	push   %edx
  406970:	0a 0e                	or     (%esi),%cl
  406972:	0c 41                	or     $0x41,%al
  406974:	c3                   	ret    
  406975:	0e                   	push   %cs
  406976:	08 41 c6             	or     %al,-0x3a(%ecx)
  406979:	0e                   	push   %cs
  40697a:	04 47                	add    $0x47,%al
  40697c:	0b 4e 0e             	or     0xe(%esi),%ecx
  40697f:	0c 41                	or     $0x41,%al
  406981:	c3                   	ret    
  406982:	0e                   	push   %cs
  406983:	08 41 c6             	or     %al,-0x3a(%ecx)
  406986:	0e                   	push   %cs
  406987:	04 00                	add    $0x0,%al

00406988 <___FRAME_END__>:
  406988:	00 00                	add    %al,(%eax)
  40698a:	00 00                	add    %al,(%eax)
  40698c:	14 00                	adc    $0x0,%al
  40698e:	00 00                	add    %al,(%eax)
  406990:	00 00                	add    %al,(%eax)
  406992:	00 00                	add    %al,(%eax)
  406994:	01 7a 52             	add    %edi,0x52(%edx)
  406997:	00 01                	add    %al,(%ecx)
  406999:	7c 08                	jl     4069a3 <___FRAME_END__+0x1b>
  40699b:	01 1b                	add    %ebx,(%ebx)
  40699d:	0c 04                	or     $0x4,%al
  40699f:	04 88                	add    $0x88,%al
  4069a1:	01 00                	add    %eax,(%eax)
  4069a3:	00 1c 00             	add    %bl,(%eax,%eax,1)
  4069a6:	00 00                	add    %al,(%eax)
  4069a8:	1c 00                	sbb    $0x0,%al
  4069aa:	00 00                	add    %al,(%eax)
  4069ac:	e4 d1                	in     $0xd1,%al
  4069ae:	ff                   	(bad)  
  4069af:	ff 09                	decl   (%ecx)
  4069b1:	00 00                	add    %al,(%eax)
  4069b3:	00 00                	add    %al,(%eax)
  4069b5:	41                   	inc    %ecx
  4069b6:	0e                   	push   %cs
  4069b7:	08 85 02 42 0d 05    	or     %al,0x50d4202(%ebp)
  4069bd:	41                   	inc    %ecx
  4069be:	c5 0c 04             	lds    (%esp,%eax,1),%ecx
  4069c1:	04 00                	add    $0x0,%al
	...

Disassembly of section .bss:

00407000 <__argv>:
  407000:	00 00                	add    %al,(%eax)
	...

00407004 <__argc>:
  407004:	00 00                	add    %al,(%eax)
	...

00407008 <_obj>:
	...

00407020 <__CRT_fmode>:
  407020:	00 00                	add    %al,(%eax)
	...

00407024 <___cpu_features>:
  407024:	00 00                	add    %al,(%eax)
	...

00407028 <.bss>:
  407028:	00 00                	add    %al,(%eax)
	...

0040702c <_mingw_initltssuo_force>:
  40702c:	00 00                	add    %al,(%eax)
	...

00407030 <_mingw_initltsdyn_force>:
  407030:	00 00                	add    %al,(%eax)
	...

00407034 <_mingw_initltsdrot_force>:
  407034:	00 00                	add    %al,(%eax)
	...

00407038 <__tls_index>:
  407038:	00 00                	add    %al,(%eax)
	...

0040703c <.bss>:
	...

0040705c <.bss>:
	...

00407064 <__CRT_MT>:
  407064:	00 00                	add    %al,(%eax)
	...

00407068 <.bss>:
  407068:	00 00                	add    %al,(%eax)
	...

0040706c <_hmod_libgcc>:
  40706c:	00 00                	add    %al,(%eax)
	...

Disassembly of section .idata:

00408000 <__head_libkernel32_a>:
  408000:	50                   	push   %eax
  408001:	80 00 00             	addb   $0x0,(%eax)
	...
  40800c:	00 85 00 00 24 81    	add    %al,-0x7edc0000(%ebp)
	...

00408014 <__head_libmoldname_a>:
  408014:	9c                   	pushf  
  408015:	80 00 00             	addb   $0x0,(%eax)
	...
  408020:	18 85 00 00 70 81    	sbb    %al,-0x7e900000(%ebp)
	...

00408028 <__head_libmsvcrt_a>:
  408028:	a8 80                	test   $0x80,%al
	...
  408032:	00 00                	add    %al,(%eax)
  408034:	9c                   	pushf  
  408035:	85 00                	test   %eax,(%eax)
  408037:	00 7c 81 00          	add    %bh,0x0(%ecx,%eax,4)
	...

00408050 <.idata$4>:
  408050:	f8                   	clc    
  408051:	81 00 00 10 82 00    	addl   $0x821000,(%eax)
  408057:	00 28                	add    %ch,(%eax)
  408059:	82 00 00             	addb   $0x0,(%eax)
  40805c:	36 82 00 00          	addb   $0x0,%ss:(%eax)
  408060:	42                   	inc    %edx
  408061:	82 00 00             	addb   $0x0,(%eax)
  408064:	54                   	push   %esp
  408065:	82 00 00             	addb   $0x0,(%eax)
  408068:	64 82 00 00          	addb   $0x0,%fs:(%eax)
  40806c:	72 82                	jb     407ff0 <__bss_end__+0xf80>
  40806e:	00 00                	add    %al,(%eax)
  408070:	84 82 00 00 94 82    	test   %al,-0x7d6c0000(%edx)
  408076:	00 00                	add    %al,(%eax)
  408078:	a8 82                	test   $0x82,%al
  40807a:	00 00                	add    %al,(%eax)
  40807c:	ba 82 00 00 d6       	mov    $0xd6000082,%edx
  408081:	82 00 00             	addb   $0x0,(%eax)
  408084:	ee                   	out    %al,(%dx)
  408085:	82 00 00             	addb   $0x0,(%eax)
  408088:	fe 82 00 00 1c 83    	incb   -0x7ce40000(%edx)
  40808e:	00 00                	add    %al,(%eax)
  408090:	2a 83 00 00 3c 83    	sub    -0x7cc40000(%ebx),%al
  408096:	00 00                	add    %al,(%eax)
  408098:	00 00                	add    %al,(%eax)
	...

0040809c <.idata$4>:
  40809c:	4c                   	dec    %esp
  40809d:	83 00 00             	addl   $0x0,(%eax)
  4080a0:	56                   	push   %esi
  4080a1:	83 00 00             	addl   $0x0,(%eax)
  4080a4:	00 00                	add    %al,(%eax)
	...

004080a8 <.idata$4>:
  4080a8:	62 83 00 00 72 83    	bound  %eax,-0x7c8e0000(%ebx)
  4080ae:	00 00                	add    %al,(%eax)
  4080b0:	82 83 00 00 92 83 00 	addb   $0x0,-0x7c6e0000(%ebx)
  4080b7:	00 a0 83 00 00 b2    	add    %ah,-0x4dffff7d(%eax)
  4080bd:	83 00 00             	addl   $0x0,(%eax)
  4080c0:	bc 83 00 00 c6       	mov    $0xc6000083,%esp
  4080c5:	83 00 00             	addl   $0x0,(%eax)
  4080c8:	d2 83 00 00 de 83    	rolb   %cl,-0x7c220000(%ebx)
  4080ce:	00 00                	add    %al,(%eax)
  4080d0:	e6 83                	out    %al,$0x83
  4080d2:	00 00                	add    %al,(%eax)
  4080d4:	f2 83 00 00          	repnz addl $0x0,(%eax)
  4080d8:	fc                   	cld    
  4080d9:	83 00 00             	addl   $0x0,(%eax)
  4080dc:	06                   	push   %es
  4080dd:	84 00                	test   %al,(%eax)
  4080df:	00 12                	add    %dl,(%edx)
  4080e1:	84 00                	test   %al,(%eax)
  4080e3:	00 1a                	add    %bl,(%edx)
  4080e5:	84 00                	test   %al,(%eax)
  4080e7:	00 24 84             	add    %ah,(%esp,%eax,4)
  4080ea:	00 00                	add    %al,(%eax)
  4080ec:	2e 84 00             	test   %al,%cs:(%eax)
  4080ef:	00 36                	add    %dh,(%esi)
  4080f1:	84 00                	test   %al,(%eax)
  4080f3:	00 40 84             	add    %al,-0x7c(%eax)
  4080f6:	00 00                	add    %al,(%eax)
  4080f8:	4a                   	dec    %edx
  4080f9:	84 00                	test   %al,(%eax)
  4080fb:	00 56 84             	add    %dl,-0x7c(%esi)
  4080fe:	00 00                	add    %al,(%eax)
  408100:	60                   	pusha  
  408101:	84 00                	test   %al,(%eax)
  408103:	00 6a 84             	add    %ch,-0x7c(%edx)
  408106:	00 00                	add    %al,(%eax)
  408108:	76 84                	jbe    40808e <.idata$4+0x3e>
  40810a:	00 00                	add    %al,(%eax)
  40810c:	80 84 00 00 8a 84 00 	addb   $0x0,0x848a00(%eax,%eax,1)
  408113:	00 
  408114:	94                   	xchg   %eax,%esp
  408115:	84 00                	test   %al,(%eax)
  408117:	00 9e 84 00 00 aa    	add    %bl,-0x55ffff7c(%esi)
  40811d:	84 00                	test   %al,(%eax)
  40811f:	00 00                	add    %al,(%eax)
  408121:	00 00                	add    %al,(%eax)
	...

00408124 <__IAT_start__>:
  408124:	f8                   	clc    
  408125:	81 00 00 10 82 00    	addl   $0x821000,(%eax)

00408128 <__imp__EnterCriticalSection@4>:
  408128:	10 82 00 00 28 82    	adc    %al,-0x7dd80000(%edx)

0040812c <__imp__ExitProcess@4>:
  40812c:	28 82 00 00 36 82    	sub    %al,-0x7dca0000(%edx)

00408130 <__imp__FindClose@4>:
  408130:	36 82 00 00          	addb   $0x0,%ss:(%eax)

00408134 <__imp__FindFirstFileA@8>:
  408134:	42                   	inc    %edx
  408135:	82 00 00             	addb   $0x0,(%eax)

00408138 <__imp__FindNextFileA@8>:
  408138:	54                   	push   %esp
  408139:	82 00 00             	addb   $0x0,(%eax)

0040813c <__imp__FreeLibrary@4>:
  40813c:	64 82 00 00          	addb   $0x0,%fs:(%eax)

00408140 <__imp__GetCommandLineA@0>:
  408140:	72 82                	jb     4080c4 <.idata$4+0x1c>
	...

00408144 <__imp__GetLastError@0>:
  408144:	84 82 00 00 94 82    	test   %al,-0x7d6c0000(%edx)

00408148 <__imp__GetModuleHandleA@4>:
  408148:	94                   	xchg   %eax,%esp
  408149:	82 00 00             	addb   $0x0,(%eax)

0040814c <__imp__GetProcAddress@8>:
  40814c:	a8 82                	test   $0x82,%al
	...

00408150 <__imp__InitializeCriticalSection@4>:
  408150:	ba 82 00 00 d6       	mov    $0xd6000082,%edx

00408154 <__imp__LeaveCriticalSection@4>:
  408154:	d6                   	(bad)  
  408155:	82 00 00             	addb   $0x0,(%eax)

00408158 <__imp__LoadLibraryA@4>:
  408158:	ee                   	out    %al,(%dx)
  408159:	82 00 00             	addb   $0x0,(%eax)

0040815c <__imp__SetUnhandledExceptionFilter@4>:
  40815c:	fe 82 00 00 1c 83    	incb   -0x7ce40000(%edx)

00408160 <__imp__TlsGetValue@4>:
  408160:	1c 83                	sbb    $0x83,%al
	...

00408164 <__imp__VirtualProtect@16>:
  408164:	2a 83 00 00 3c 83    	sub    -0x7cc40000(%ebx),%al

00408168 <__imp__VirtualQuery@12>:
  408168:	3c 83                	cmp    $0x83,%al
  40816a:	00 00                	add    %al,(%eax)
  40816c:	00 00                	add    %al,(%eax)
	...

00408170 <__imp__strdup>:
  408170:	4c                   	dec    %esp
  408171:	83 00 00             	addl   $0x0,(%eax)

00408174 <__imp__stricoll>:
  408174:	56                   	push   %esi
  408175:	83 00 00             	addl   $0x0,(%eax)
  408178:	00 00                	add    %al,(%eax)
	...

0040817c <__imp____getmainargs>:
  40817c:	62 83 00 00 72 83    	bound  %eax,-0x7c8e0000(%ebx)

00408180 <__imp____mb_cur_max>:
  408180:	72 83                	jb     408105 <.idata$4+0x5d>
	...

00408184 <__imp____p__environ>:
  408184:	82 83 00 00 92 83 00 	addb   $0x0,-0x7c6e0000(%ebx)

00408188 <__imp____p__fmode>:
  408188:	92                   	xchg   %eax,%edx
  408189:	83 00 00             	addl   $0x0,(%eax)

0040818c <__imp____set_app_type>:
  40818c:	a0 83 00 00 b2       	mov    0xb2000083,%al

00408190 <__imp___cexit>:
  408190:	b2 83                	mov    $0x83,%dl
	...

00408194 <__imp___errno>:
  408194:	bc 83 00 00 c6       	mov    $0xc6000083,%esp

00408198 <__imp___fpreset>:
  408198:	c6 83 00 00 d2 83 00 	movb   $0x0,-0x7c2e0000(%ebx)

0040819c <__imp___fullpath>:
  40819c:	d2 83 00 00 de 83    	rolb   %cl,-0x7c220000(%ebx)

004081a0 <__imp___iob>:
  4081a0:	de 83 00 00 e6 83    	fiadd  -0x7c1a0000(%ebx)

004081a4 <__imp___isctype>:
  4081a4:	e6 83                	out    %al,$0x83
	...

004081a8 <__imp___onexit>:
  4081a8:	f2 83 00 00          	repnz addl $0x0,(%eax)

004081ac <__imp___pctype>:
  4081ac:	fc                   	cld    
  4081ad:	83 00 00             	addl   $0x0,(%eax)

004081b0 <__imp___setmode>:
  4081b0:	06                   	push   %es
  4081b1:	84 00                	test   %al,(%eax)
	...

004081b4 <__imp__abort>:
  4081b4:	12 84 00 00 1a 84 00 	adc    0x841a00(%eax,%eax,1),%al

004081b8 <__imp__atexit>:
  4081b8:	1a 84 00 00 24 84 00 	sbb    0x842400(%eax,%eax,1),%al

004081bc <__imp__calloc>:
  4081bc:	24 84                	and    $0x84,%al
	...

004081c0 <__imp__free>:
  4081c0:	2e 84 00             	test   %al,%cs:(%eax)
	...

004081c4 <__imp__fwrite>:
  4081c4:	36 84 00             	test   %al,%ss:(%eax)
	...

004081c8 <__imp__malloc>:
  4081c8:	40                   	inc    %eax
  4081c9:	84 00                	test   %al,(%eax)
	...

004081cc <__imp__mbstowcs>:
  4081cc:	4a                   	dec    %edx
  4081cd:	84 00                	test   %al,(%eax)
	...

004081d0 <__imp__memcpy>:
  4081d0:	56                   	push   %esi
  4081d1:	84 00                	test   %al,(%eax)
	...

004081d4 <__imp__realloc>:
  4081d4:	60                   	pusha  
  4081d5:	84 00                	test   %al,(%eax)
	...

004081d8 <__imp__setlocale>:
  4081d8:	6a 84                	push   $0xffffff84
	...

004081dc <__imp__signal>:
  4081dc:	76 84                	jbe    408162 <__imp__TlsGetValue@4+0x2>
	...

004081e0 <__imp__strcoll>:
  4081e0:	80 84 00 00 8a 84 00 	addb   $0x0,0x848a00(%eax,%eax,1)
  4081e7:	00 

004081e4 <__imp__strlen>:
  4081e4:	8a 84 00 00 94 84 00 	mov    0x849400(%eax,%eax,1),%al

004081e8 <__imp__tolower>:
  4081e8:	94                   	xchg   %eax,%esp
  4081e9:	84 00                	test   %al,(%eax)
	...

004081ec <__imp__vfprintf>:
  4081ec:	9e                   	sahf   
  4081ed:	84 00                	test   %al,(%eax)
	...

004081f0 <__imp__wcstombs>:
  4081f0:	aa                   	stos   %al,%es:(%edi)
  4081f1:	84 00                	test   %al,(%eax)
  4081f3:	00 00                	add    %al,(%eax)
  4081f5:	00 00                	add    %al,(%eax)
	...

004081f8 <__IAT_end__>:
  4081f8:	cf                   	iret   
  4081f9:	00 44 65 6c          	add    %al,0x6c(%ebp,%eiz,2)
  4081fd:	65 74 65             	gs je  408265 <.idata$6+0x1>
  408200:	43                   	inc    %ebx
  408201:	72 69                	jb     40826c <.idata$6+0x8>
  408203:	74 69                	je     40826e <.idata$6+0xa>
  408205:	63 61 6c             	arpl   %sp,0x6c(%ecx)
  408208:	53                   	push   %ebx
  408209:	65 63 74 69 6f       	arpl   %si,%gs:0x6f(%ecx,%ebp,2)
  40820e:	6e                   	outsb  %ds:(%esi),(%dx)
	...

00408210 <.idata$6>:
  408210:	ec                   	in     (%dx),%al
  408211:	00 45 6e             	add    %al,0x6e(%ebp)
  408214:	74 65                	je     40827b <.idata$6+0x9>
  408216:	72 43                	jb     40825b <.idata$6+0x7>
  408218:	72 69                	jb     408283 <.idata$6+0x11>
  40821a:	74 69                	je     408285 <.idata$6+0x1>
  40821c:	63 61 6c             	arpl   %sp,0x6c(%ecx)
  40821f:	53                   	push   %ebx
  408220:	65 63 74 69 6f       	arpl   %si,%gs:0x6f(%ecx,%ebp,2)
  408225:	6e                   	outsb  %ds:(%esi),(%dx)
	...

00408228 <.idata$6>:
  408228:	17                   	pop    %ss
  408229:	01 45 78             	add    %eax,0x78(%ebp)
  40822c:	69 74 50 72 6f 63 65 	imul   $0x7365636f,0x72(%eax,%edx,2),%esi
  408233:	73 
  408234:	73 00                	jae    408236 <.idata$6>

00408236 <.idata$6>:
  408236:	2c 01                	sub    $0x1,%al
  408238:	46                   	inc    %esi
  408239:	69 6e 64 43 6c 6f 73 	imul   $0x736f6c43,0x64(%esi),%ebp
  408240:	65 00 30             	add    %dh,%gs:(%eax)

00408242 <.idata$6>:
  408242:	30 01                	xor    %al,(%ecx)
  408244:	46                   	inc    %esi
  408245:	69 6e 64 46 69 72 73 	imul   $0x73726946,0x64(%esi),%ebp
  40824c:	74 46                	je     408294 <.idata$6>
  40824e:	69 6c 65 41 00 00 41 	imul   $0x1410000,0x41(%ebp,%eiz,2),%ebp
  408255:	01 

00408254 <.idata$6>:
  408254:	41                   	inc    %ecx
  408255:	01 46 69             	add    %eax,0x69(%esi)
  408258:	6e                   	outsb  %ds:(%esi),(%dx)
  408259:	64 4e                	fs dec %esi
  40825b:	65 78 74             	gs js  4082d2 <.idata$6+0x18>
  40825e:	46                   	inc    %esi
  40825f:	69 6c 65 41 00 60 01 	imul   $0x46016000,0x41(%ebp,%eiz,2),%ebp
  408266:	46 

00408264 <.idata$6>:
  408264:	60                   	pusha  
  408265:	01 46 72             	add    %eax,0x72(%esi)
  408268:	65 65 4c             	gs gs dec %esp
  40826b:	69 62 72 61 72 79 00 	imul   $0x797261,0x72(%edx),%esp

00408272 <.idata$6>:
  408272:	84 01                	test   %al,(%ecx)
  408274:	47                   	inc    %edi
  408275:	65 74 43             	gs je  4082bb <.idata$6+0x1>
  408278:	6f                   	outsl  %ds:(%esi),(%dx)
  408279:	6d                   	insl   (%dx),%es:(%edi)
  40827a:	6d                   	insl   (%dx),%es:(%edi)
  40827b:	61                   	popa   
  40827c:	6e                   	outsb  %ds:(%esi),(%dx)
  40827d:	64 4c                	fs dec %esp
  40827f:	69 6e 65 41 00 fe 01 	imul   $0x1fe0041,0x65(%esi),%ebp

00408284 <.idata$6>:
  408284:	fe 01                	incb   (%ecx)
  408286:	47                   	inc    %edi
  408287:	65 74 4c             	gs je  4082d6 <.idata$6>
  40828a:	61                   	popa   
  40828b:	73 74                	jae    408301 <.idata$6+0x3>
  40828d:	45                   	inc    %ebp
  40828e:	72 72                	jb     408302 <.idata$6+0x4>
  408290:	6f                   	outsl  %ds:(%esi),(%dx)
  408291:	72 00                	jb     408293 <.idata$6+0xf>
	...

00408294 <.idata$6>:
  408294:	11 02                	adc    %eax,(%edx)
  408296:	47                   	inc    %edi
  408297:	65 74 4d             	gs je  4082e7 <.idata$6+0x11>
  40829a:	6f                   	outsl  %ds:(%esi),(%dx)
  40829b:	64 75 6c             	fs jne 40830a <.idata$6+0xc>
  40829e:	65 48                	gs dec %eax
  4082a0:	61                   	popa   
  4082a1:	6e                   	outsb  %ds:(%esi),(%dx)
  4082a2:	64 6c                	fs insb (%dx),%es:(%edi)
  4082a4:	65 41                	gs inc %ecx
	...

004082a8 <.idata$6>:
  4082a8:	41                   	inc    %ecx
  4082a9:	02 47 65             	add    0x65(%edi),%al
  4082ac:	74 50                	je     4082fe <.idata$6>
  4082ae:	72 6f                	jb     40831f <.idata$6+0x3>
  4082b0:	63 41 64             	arpl   %ax,0x64(%ecx)
  4082b3:	64 72 65             	fs jb  40831b <.idata$6+0x1d>
  4082b6:	73 73                	jae    40832b <.idata$6+0x1>
	...

004082ba <.idata$6>:
  4082ba:	de 02                	fiadd  (%edx)
  4082bc:	49                   	dec    %ecx
  4082bd:	6e                   	outsb  %ds:(%esi),(%dx)
  4082be:	69 74 69 61 6c 69 7a 	imul   $0x657a696c,0x61(%ecx,%ebp,2),%esi
  4082c5:	65 
  4082c6:	43                   	inc    %ebx
  4082c7:	72 69                	jb     408332 <.idata$6+0x8>
  4082c9:	74 69                	je     408334 <.idata$6+0xa>
  4082cb:	63 61 6c             	arpl   %sp,0x6c(%ecx)
  4082ce:	53                   	push   %ebx
  4082cf:	65 63 74 69 6f       	arpl   %si,%gs:0x6f(%ecx,%ebp,2)
  4082d4:	6e                   	outsb  %ds:(%esi),(%dx)
	...

004082d6 <.idata$6>:
  4082d6:	2e 03 4c 65 61       	add    %cs:0x61(%ebp,%eiz,2),%ecx
  4082db:	76 65                	jbe    408342 <.idata$6+0x6>
  4082dd:	43                   	inc    %ebx
  4082de:	72 69                	jb     408349 <.idata$6+0xd>
  4082e0:	74 69                	je     40834b <.idata$6+0xf>
  4082e2:	63 61 6c             	arpl   %sp,0x6c(%ecx)
  4082e5:	53                   	push   %ebx
  4082e6:	65 63 74 69 6f       	arpl   %si,%gs:0x6f(%ecx,%ebp,2)
  4082eb:	6e                   	outsb  %ds:(%esi),(%dx)
	...

004082ee <.idata$6>:
  4082ee:	31 03                	xor    %eax,(%ebx)
  4082f0:	4c                   	dec    %esp
  4082f1:	6f                   	outsl  %ds:(%esi),(%dx)
  4082f2:	61                   	popa   
  4082f3:	64 4c                	fs dec %esp
  4082f5:	69 62 72 61 72 79 41 	imul   $0x41797261,0x72(%edx),%esp
	...

004082fe <.idata$6>:
  4082fe:	74 04                	je     408304 <.idata$6+0x6>
  408300:	53                   	push   %ebx
  408301:	65 74 55             	gs je  408359 <.idata$6+0x3>
  408304:	6e                   	outsb  %ds:(%esi),(%dx)
  408305:	68 61 6e 64 6c       	push   $0x6c646e61
  40830a:	65 64 45             	gs fs inc %ebp
  40830d:	78 63                	js     408372 <.idata$6>
  40830f:	65 70 74             	gs jo  408386 <.idata$6+0x4>
  408312:	69 6f 6e 46 69 6c 74 	imul   $0x746c6946,0x6e(%edi),%ebp
  408319:	65 72 00             	gs jb  40831c <.idata$6>

0040831c <.idata$6>:
  40831c:	95                   	xchg   %eax,%ebp
  40831d:	04 54                	add    $0x54,%al
  40831f:	6c                   	insb   (%dx),%es:(%edi)
  408320:	73 47                	jae    408369 <.idata$6+0x7>
  408322:	65 74 56             	gs je  40837b <.idata$6+0x9>
  408325:	61                   	popa   
  408326:	6c                   	insb   (%dx),%es:(%edi)
  408327:	75 65                	jne    40838e <.idata$6+0xc>
	...

0040832a <.idata$6>:
  40832a:	bd 04 56 69 72       	mov    $0x72695604,%ebp
  40832f:	74 75                	je     4083a6 <.idata$6+0x6>
  408331:	61                   	popa   
  408332:	6c                   	insb   (%dx),%es:(%edi)
  408333:	50                   	push   %eax
  408334:	72 6f                	jb     4083a5 <.idata$6+0x5>
  408336:	74 65                	je     40839d <.idata$6+0xb>
  408338:	63 74 00 00          	arpl   %si,0x0(%eax,%eax,1)

0040833c <.idata$6>:
  40833c:	bf 04 56 69 72       	mov    $0x72695604,%edi
  408341:	74 75                	je     4083b8 <.idata$6+0x6>
  408343:	61                   	popa   
  408344:	6c                   	insb   (%dx),%es:(%edi)
  408345:	51                   	push   %ecx
  408346:	75 65                	jne    4083ad <.idata$6+0xd>
  408348:	72 79                	jb     4083c3 <.idata$6+0x7>
	...

0040834c <.idata$6>:
  40834c:	50                   	push   %eax
  40834d:	00 5f 73             	add    %bl,0x73(%edi)
  408350:	74 72                	je     4083c4 <.idata$6+0x8>
  408352:	64 75 70             	fs jne 4083c5 <.idata$6+0x9>
	...

00408356 <.idata$6>:
  408356:	52                   	push   %edx
  408357:	00 5f 73             	add    %bl,0x73(%edi)
  40835a:	74 72                	je     4083ce <.idata$6+0x8>
  40835c:	69 63 6f 6c 6c 00 58 	imul   $0x58006c6c,0x6f(%ebx),%esp

00408362 <.idata$6>:
  408362:	58                   	pop    %eax
  408363:	00 5f 5f             	add    %bl,0x5f(%edi)
  408366:	67 65 74 6d          	addr16 gs je 4083d7 <.idata$6+0x5>
  40836a:	61                   	popa   
  40836b:	69 6e 61 72 67 73 00 	imul   $0x736772,0x61(%esi),%ebp

00408372 <.idata$6>:
  408372:	77 00                	ja     408374 <.idata$6+0x2>
  408374:	5f                   	pop    %edi
  408375:	5f                   	pop    %edi
  408376:	6d                   	insl   (%dx),%es:(%edi)
  408377:	62 5f 63             	bound  %ebx,0x63(%edi)
  40837a:	75 72                	jne    4083ee <.idata$6+0x8>
  40837c:	5f                   	pop    %edi
  40837d:	6d                   	insl   (%dx),%es:(%edi)
  40837e:	61                   	popa   
  40837f:	78 00                	js     408381 <.idata$6+0xf>
	...

00408382 <.idata$6>:
  408382:	83 00 5f             	addl   $0x5f,(%eax)
  408385:	5f                   	pop    %edi
  408386:	70 5f                	jo     4083e7 <.idata$6+0x1>
  408388:	5f                   	pop    %edi
  408389:	65 6e                	outsb  %gs:(%esi),(%dx)
  40838b:	76 69                	jbe    4083f6 <.idata$6+0x4>
  40838d:	72 6f                	jb     4083fe <.idata$6+0x2>
  40838f:	6e                   	outsb  %ds:(%esi),(%dx)
	...

00408392 <.idata$6>:
  408392:	85 00                	test   %eax,(%eax)
  408394:	5f                   	pop    %edi
  408395:	5f                   	pop    %edi
  408396:	70 5f                	jo     4083f7 <.idata$6+0x5>
  408398:	5f                   	pop    %edi
  408399:	66 6d                	insw   (%dx),%es:(%edi)
  40839b:	6f                   	outsl  %ds:(%esi),(%dx)
  40839c:	64 65 00 00          	fs add %al,%gs:(%eax)

004083a0 <.idata$6>:
  4083a0:	99                   	cltd   
  4083a1:	00 5f 5f             	add    %bl,0x5f(%edi)
  4083a4:	73 65                	jae    40840b <.idata$6+0x5>
  4083a6:	74 5f                	je     408407 <.idata$6+0x1>
  4083a8:	61                   	popa   
  4083a9:	70 70                	jo     40841b <.idata$6+0x1>
  4083ab:	5f                   	pop    %edi
  4083ac:	74 79                	je     408427 <.idata$6+0x3>
  4083ae:	70 65                	jo     408415 <.idata$6+0x3>
	...

004083b2 <.idata$6>:
  4083b2:	db 00                	fildl  (%eax)
  4083b4:	5f                   	pop    %edi
  4083b5:	63 65 78             	arpl   %sp,0x78(%ebp)
  4083b8:	69 74 00 00 1d 01 5f 	imul   $0x655f011d,0x0(%eax,%eax,1),%esi
  4083bf:	65 

004083bc <.idata$6>:
  4083bc:	1d 01 5f 65 72       	sbb    $0x72655f01,%eax
  4083c1:	72 6e                	jb     408431 <.idata$6+0x3>
  4083c3:	6f                   	outsl  %ds:(%esi),(%dx)
	...

004083c6 <.idata$6>:
  4083c6:	44                   	inc    %esp
  4083c7:	01 5f 66             	add    %ebx,0x66(%edi)
  4083ca:	70 72                	jo     40843e <.idata$6+0x8>
  4083cc:	65 73 65             	gs jae 408434 <.idata$6+0x6>
  4083cf:	74 00                	je     4083d1 <.idata$6+0xb>
	...

004083d2 <.idata$6>:
  4083d2:	5e                   	pop    %esi
  4083d3:	01 5f 66             	add    %ebx,0x66(%edi)
  4083d6:	75 6c                	jne    408444 <.idata$6+0x4>
  4083d8:	6c                   	insb   (%dx),%es:(%edi)
  4083d9:	70 61                	jo     40843c <.idata$6+0x6>
  4083db:	74 68                	je     408445 <.idata$6+0x5>
	...

004083de <.idata$6>:
  4083de:	a1 01 5f 69 6f       	mov    0x6f695f01,%eax
  4083e3:	62 00                	bound  %eax,(%eax)
	...

004083e6 <.idata$6>:
  4083e6:	a6                   	cmpsb  %es:(%edi),%ds:(%esi)
  4083e7:	01 5f 69             	add    %ebx,0x69(%edi)
  4083ea:	73 63                	jae    40844f <.idata$6+0x5>
  4083ec:	74 79                	je     408467 <.idata$6+0x7>
  4083ee:	70 65                	jo     408455 <.idata$6+0xb>
	...

004083f2 <.idata$6>:
  4083f2:	b1 02                	mov    $0x2,%cl
  4083f4:	5f                   	pop    %edi
  4083f5:	6f                   	outsl  %ds:(%esi),(%dx)
  4083f6:	6e                   	outsb  %ds:(%esi),(%dx)
  4083f7:	65 78 69             	gs js  408463 <.idata$6+0x3>
  4083fa:	74 00                	je     4083fc <.idata$6>

004083fc <.idata$6>:
  4083fc:	ba 02 5f 70 63       	mov    $0x63705f02,%edx
  408401:	74 79                	je     40847c <.idata$6+0x6>
  408403:	70 65                	jo     40846a <.idata$6>
	...

00408406 <.idata$6>:
  408406:	f1                   	icebp  
  408407:	02 5f 73             	add    0x73(%edi),%bl
  40840a:	65 74 6d             	gs je  40847a <.idata$6+0x4>
  40840d:	6f                   	outsl  %ds:(%esi),(%dx)
  40840e:	64 65 00 00          	fs add %al,%gs:(%eax)

00408412 <.idata$6>:
  408412:	3b 04 61             	cmp    (%ecx,%eiz,2),%eax
  408415:	62 6f 72             	bound  %ebp,0x72(%edi)
  408418:	74 00                	je     40841a <.idata$6>

0040841a <.idata$6>:
  40841a:	43                   	inc    %ebx
  40841b:	04 61                	add    $0x61,%al
  40841d:	74 65                	je     408484 <.idata$6+0x4>
  40841f:	78 69                	js     40848a <.idata$6>
  408421:	74 00                	je     408423 <.idata$6+0x9>
	...

00408424 <.idata$6>:
  408424:	4a                   	dec    %edx
  408425:	04 63                	add    $0x63,%al
  408427:	61                   	popa   
  408428:	6c                   	insb   (%dx),%es:(%edi)
  408429:	6c                   	insb   (%dx),%es:(%edi)
  40842a:	6f                   	outsl  %ds:(%esi),(%dx)
  40842b:	63 00                	arpl   %ax,(%eax)
	...

0040842e <.idata$6>:
  40842e:	6b 04 66 72          	imul   $0x72,(%esi,%eiz,2),%eax
  408432:	65 65 00 00          	gs add %al,%gs:(%eax)

00408436 <.idata$6>:
  408436:	76 04                	jbe    40843c <.idata$6+0x6>
  408438:	66 77 72             	data16 ja 4084ad <.idata$6+0x3>
  40843b:	69 74 65 00 00 a3 04 	imul   $0x6d04a300,0x0(%ebp,%eiz,2),%esi
  408442:	6d 

00408440 <.idata$6>:
  408440:	a3 04 6d 61 6c       	mov    %eax,0x6c616d04
  408445:	6c                   	insb   (%dx),%es:(%edi)
  408446:	6f                   	outsl  %ds:(%esi),(%dx)
  408447:	63 00                	arpl   %ax,(%eax)
	...

0040844a <.idata$6>:
  40844a:	aa                   	stos   %al,%es:(%edi)
  40844b:	04 6d                	add    $0x6d,%al
  40844d:	62 73 74             	bound  %esi,0x74(%ebx)
  408450:	6f                   	outsl  %ds:(%esi),(%dx)
  408451:	77 63                	ja     4084b6 <.idata$6+0xc>
  408453:	73 00                	jae    408455 <.idata$6+0xb>
	...

00408456 <.idata$6>:
  408456:	af                   	scas   %es:(%edi),%eax
  408457:	04 6d                	add    $0x6d,%al
  408459:	65 6d                	gs insl (%dx),%es:(%edi)
  40845b:	63 70 79             	arpl   %si,0x79(%eax)
	...

00408460 <.idata$6>:
  408460:	c4 04 72             	les    (%edx,%esi,2),%eax
  408463:	65 61                	gs popa 
  408465:	6c                   	insb   (%dx),%es:(%edi)
  408466:	6c                   	insb   (%dx),%es:(%edi)
  408467:	6f                   	outsl  %ds:(%esi),(%dx)
  408468:	63 00                	arpl   %ax,(%eax)

0040846a <.idata$6>:
  40846a:	cb                   	lret   
  40846b:	04 73                	add    $0x73,%al
  40846d:	65 74 6c             	gs je  4084dc <.idata$6+0x32>
  408470:	6f                   	outsl  %ds:(%esi),(%dx)
  408471:	63 61 6c             	arpl   %sp,0x6c(%ecx)
  408474:	65 00 cd             	gs add %cl,%ch

00408476 <.idata$6>:
  408476:	cd 04                	int    $0x4
  408478:	73 69                	jae    4084e3 <.idata$6+0x39>
  40847a:	67 6e                	outsb  %ds:(%si),(%dx)
  40847c:	61                   	popa   
  40847d:	6c                   	insb   (%dx),%es:(%edi)
	...

00408480 <.idata$6>:
  408480:	da 04 73             	fiaddl (%ebx,%esi,2)
  408483:	74 72                	je     4084f7 <.idata$6+0x4d>
  408485:	63 6f 6c             	arpl   %bp,0x6c(%edi)
  408488:	6c                   	insb   (%dx),%es:(%edi)
	...

0040848a <.idata$6>:
  40848a:	e1 04                	loope  408490 <.idata$6+0x6>
  40848c:	73 74                	jae    408502 <__libkernel32_a_iname+0x2>
  40848e:	72 6c                	jb     4084fc <.idata$6+0x52>
  408490:	65 6e                	outsb  %gs:(%esi),(%dx)
	...

00408494 <.idata$6>:
  408494:	fd                   	std    
  408495:	04 74                	add    $0x74,%al
  408497:	6f                   	outsl  %ds:(%esi),(%dx)
  408498:	6c                   	insb   (%dx),%es:(%edi)
  408499:	6f                   	outsl  %ds:(%esi),(%dx)
  40849a:	77 65                	ja     408501 <__libkernel32_a_iname+0x1>
  40849c:	72 00                	jb     40849e <.idata$6>

0040849e <.idata$6>:
  40849e:	04 05                	add    $0x5,%al
  4084a0:	76 66                	jbe    408508 <__libkernel32_a_iname+0x8>
  4084a2:	70 72                	jo     408516 <__libkernel32_a_iname+0x16>
  4084a4:	69 6e 74 66 00 00 2d 	imul   $0x2d000066,0x74(%esi),%ebp

004084aa <.idata$6>:
  4084aa:	2d 05 77 63 73       	sub    $0x73637705,%eax
  4084af:	74 6f                	je     408520 <__libmoldname_a_iname+0x8>
  4084b1:	6d                   	insl   (%dx),%es:(%edi)
  4084b2:	62 73 00             	bound  %esi,0x0(%ebx)
  4084b5:	00 00                	add    %al,(%eax)
  4084b7:	00 00                	add    %al,(%eax)
  4084b9:	80 00 00             	addb   $0x0,(%eax)
  4084bc:	00 80 00 00 00 80    	add    %al,-0x80000000(%eax)
  4084c2:	00 00                	add    %al,(%eax)
  4084c4:	00 80 00 00 00 80    	add    %al,-0x80000000(%eax)
  4084ca:	00 00                	add    %al,(%eax)
  4084cc:	00 80 00 00 00 80    	add    %al,-0x80000000(%eax)
  4084d2:	00 00                	add    %al,(%eax)
  4084d4:	00 80 00 00 00 80    	add    %al,-0x80000000(%eax)
  4084da:	00 00                	add    %al,(%eax)
  4084dc:	00 80 00 00 00 80    	add    %al,-0x80000000(%eax)
  4084e2:	00 00                	add    %al,(%eax)
  4084e4:	00 80 00 00 00 80    	add    %al,-0x80000000(%eax)
  4084ea:	00 00                	add    %al,(%eax)
  4084ec:	00 80 00 00 00 80    	add    %al,-0x80000000(%eax)
  4084f2:	00 00                	add    %al,(%eax)
  4084f4:	00 80 00 00 00 80    	add    %al,-0x80000000(%eax)
  4084fa:	00 00                	add    %al,(%eax)
  4084fc:	00 80 00 00 4b 45    	add    %al,0x454b0000(%eax)

00408500 <__libkernel32_a_iname>:
  408500:	4b                   	dec    %ebx
  408501:	45                   	inc    %ebp
  408502:	52                   	push   %edx
  408503:	4e                   	dec    %esi
  408504:	45                   	inc    %ebp
  408505:	4c                   	dec    %esp
  408506:	33 32                	xor    (%edx),%esi
  408508:	2e 64 6c             	cs fs insb (%dx),%es:(%edi)
  40850b:	6c                   	insb   (%dx),%es:(%edi)
  40850c:	00 00                	add    %al,(%eax)
  40850e:	00 00                	add    %al,(%eax)
  408510:	14 80                	adc    $0x80,%al
  408512:	00 00                	add    %al,(%eax)
  408514:	14 80                	adc    $0x80,%al
	...

00408518 <__libmoldname_a_iname>:
  408518:	6d                   	insl   (%dx),%es:(%edi)
  408519:	73 76                	jae    408591 <__libmoldname_a_iname+0x79>
  40851b:	63 72 74             	arpl   %si,0x74(%edx)
  40851e:	2e 64 6c             	cs fs insb (%dx),%es:(%edi)
  408521:	6c                   	insb   (%dx),%es:(%edi)
  408522:	00 00                	add    %al,(%eax)
  408524:	28 80 00 00 28 80    	sub    %al,-0x7fd80000(%eax)
  40852a:	00 00                	add    %al,(%eax)
  40852c:	28 80 00 00 28 80    	sub    %al,-0x7fd80000(%eax)
  408532:	00 00                	add    %al,(%eax)
  408534:	28 80 00 00 28 80    	sub    %al,-0x7fd80000(%eax)
  40853a:	00 00                	add    %al,(%eax)
  40853c:	28 80 00 00 28 80    	sub    %al,-0x7fd80000(%eax)
  408542:	00 00                	add    %al,(%eax)
  408544:	28 80 00 00 28 80    	sub    %al,-0x7fd80000(%eax)
  40854a:	00 00                	add    %al,(%eax)
  40854c:	28 80 00 00 28 80    	sub    %al,-0x7fd80000(%eax)
  408552:	00 00                	add    %al,(%eax)
  408554:	28 80 00 00 28 80    	sub    %al,-0x7fd80000(%eax)
  40855a:	00 00                	add    %al,(%eax)
  40855c:	28 80 00 00 28 80    	sub    %al,-0x7fd80000(%eax)
  408562:	00 00                	add    %al,(%eax)
  408564:	28 80 00 00 28 80    	sub    %al,-0x7fd80000(%eax)
  40856a:	00 00                	add    %al,(%eax)
  40856c:	28 80 00 00 28 80    	sub    %al,-0x7fd80000(%eax)
  408572:	00 00                	add    %al,(%eax)
  408574:	28 80 00 00 28 80    	sub    %al,-0x7fd80000(%eax)
  40857a:	00 00                	add    %al,(%eax)
  40857c:	28 80 00 00 28 80    	sub    %al,-0x7fd80000(%eax)
  408582:	00 00                	add    %al,(%eax)
  408584:	28 80 00 00 28 80    	sub    %al,-0x7fd80000(%eax)
  40858a:	00 00                	add    %al,(%eax)
  40858c:	28 80 00 00 28 80    	sub    %al,-0x7fd80000(%eax)
  408592:	00 00                	add    %al,(%eax)
  408594:	28 80 00 00 28 80    	sub    %al,-0x7fd80000(%eax)
	...

0040859c <__libmsvcrt_a_iname>:
  40859c:	6d                   	insl   (%dx),%es:(%edi)
  40859d:	73 76                	jae    408615 <__libmsvcrt_a_iname+0x79>
  40859f:	63 72 74             	arpl   %si,0x74(%edx)
  4085a2:	2e 64 6c             	cs fs insb (%dx),%es:(%edi)
  4085a5:	6c                   	insb   (%dx),%es:(%edi)
	...

Disassembly of section .CRT:

00409000 <___crt_xc_end__>:
  409000:	00 00                	add    %al,(%eax)
	...

00409004 <___xl_c>:
  409004:	40                   	inc    %eax
  409005:	1a 40 00             	sbb    0x0(%eax),%al

00409008 <___xl_d>:
  409008:	f0 19 40 00          	lock sbb %eax,0x0(%eax)

0040900c <___xl_z>:
  40900c:	00 00                	add    %al,(%eax)
	...

00409010 <___crt_xp_end__>:
  409010:	00 00                	add    %al,(%eax)
	...

00409014 <.CRT$XDZ>:
  409014:	00 00                	add    %al,(%eax)
	...

Disassembly of section .tls:

0040a000 <___tls_start__>:
  40a000:	00 00                	add    %al,(%eax)
	...

0040a004 <__tls_used>:
  40a004:	01 a0 40 00 1c a0    	add    %esp,-0x5fe3ffc0(%eax)
  40a00a:	40                   	inc    %eax
  40a00b:	00 38                	add    %bh,(%eax)
  40a00d:	70 40                	jo     40a04f <___tls_end__+0x2f>
  40a00f:	00 04 90             	add    %al,(%eax,%edx,4)
  40a012:	40                   	inc    %eax
	...

0040a01c <__tls_end>:
  40a01c:	00 00                	add    %al,(%eax)
	...

Disassembly of section .debug_aranges:

0040b000 <.debug_aranges>:
  40b000:	1c 00                	sbb    $0x0,%al
  40b002:	00 00                	add    %al,(%eax)
  40b004:	02 00                	add    (%eax),%al
  40b006:	00 00                	add    %al,(%eax)
  40b008:	00 00                	add    %al,(%eax)
  40b00a:	04 00                	add    $0x0,%al
  40b00c:	00 00                	add    %al,(%eax)
  40b00e:	00 00                	add    %al,(%eax)
  40b010:	20 20                	and    %ah,(%eax)
  40b012:	40                   	inc    %eax
  40b013:	00 2a                	add    %ch,(%edx)
	...

0040b020 <.debug_aranges>:
  40b020:	14 00                	adc    $0x0,%al
  40b022:	00 00                	add    %al,(%eax)
  40b024:	02 00                	add    (%eax),%al
  40b026:	a7                   	cmpsl  %es:(%edi),%ds:(%esi)
  40b027:	00 00                	add    %al,(%eax)
  40b029:	00 04 00             	add    %al,(%eax,%eax,1)
	...

Disassembly of section .debug_info:

0040c000 <.debug_info>:
  40c000:	a3 00 00 00 02       	mov    %eax,0x2000000
  40c005:	00 00                	add    %al,(%eax)
  40c007:	00 00                	add    %al,(%eax)
  40c009:	00 04 01             	add    %al,(%ecx,%eax,1)
  40c00c:	00 00                	add    %al,(%eax)
  40c00e:	00 00                	add    %al,(%eax)
  40c010:	20 20                	and    %ah,(%eax)
  40c012:	40                   	inc    %eax
  40c013:	00 4a 20             	add    %cl,0x20(%edx)
  40c016:	40                   	inc    %eax
  40c017:	00 2e                	add    %ch,(%esi)
  40c019:	2e 2f                	cs das 
  40c01b:	2e 2e 2f             	cs cs das 
  40c01e:	2e 2e 2f             	cs cs das 
  40c021:	73 72                	jae    40c095 <.debug_info+0x95>
  40c023:	63 2f                	arpl   %bp,(%edi)
  40c025:	67 63 63 2d          	arpl   %sp,0x2d(%bp,%di)
  40c029:	36 2e 33 2e          	ss xor %cs:(%esi),%ebp
  40c02d:	30 2f                	xor    %ch,(%edi)
  40c02f:	6c                   	insb   (%dx),%es:(%edi)
  40c030:	69 62 67 63 63 2f 63 	imul   $0x632f6363,0x67(%edx),%esp
  40c037:	6f                   	outsl  %ds:(%esi),(%dx)
  40c038:	6e                   	outsb  %ds:(%esi),(%dx)
  40c039:	66 69 67 2f 69 33    	imul   $0x3369,0x2f(%edi),%sp
  40c03f:	38 36                	cmp    %dh,(%esi)
  40c041:	2f                   	das    
  40c042:	63 79 67             	arpl   %di,0x67(%ecx)
  40c045:	77 69                	ja     40c0b0 <.debug_info+0x9>
  40c047:	6e                   	outsb  %ds:(%esi),(%dx)
  40c048:	2e 53                	cs push %ebx
  40c04a:	00 2f                	add    %ch,(%edi)
  40c04c:	68 6f 6d 65 2f       	push   $0x2f656d6f
  40c051:	6b 65 69 74          	imul   $0x74,0x69(%ebp),%esp
  40c055:	68 2f 73 72 63       	push   $0x6372732f
  40c05a:	2f                   	das    
  40c05b:	6d                   	insl   (%dx),%es:(%edi)
  40c05c:	69 6e 67 77 2f 67 63 	imul   $0x63672f77,0x67(%esi),%ebp
  40c063:	63 2d 62 75 69 6c    	arpl   %bp,0x6c697562
  40c069:	64 2f                	fs das 
  40c06b:	67 63 63 2d          	arpl   %sp,0x2d(%bp,%di)
  40c06f:	36 2e 33 2e          	ss xor %cs:(%esi),%ebp
  40c073:	30 2d 6d 69 6e 67    	xor    %ch,0x676e696d
  40c079:	77 33                	ja     40c0ae <.debug_info+0x7>
  40c07b:	32 2d 63 72 6f 73    	xor    0x736f7263,%ch
  40c081:	73 2d                	jae    40c0b0 <.debug_info+0x9>
  40c083:	6e                   	outsb  %ds:(%esi),(%dx)
  40c084:	61                   	popa   
  40c085:	74 69                	je     40c0f0 <.debug_info+0x49>
  40c087:	76 65                	jbe    40c0ee <.debug_info+0x47>
  40c089:	2f                   	das    
  40c08a:	6d                   	insl   (%dx),%es:(%edi)
  40c08b:	69 6e 67 77 33 32 2f 	imul   $0x2f323377,0x67(%esi),%ebp
  40c092:	6c                   	insb   (%dx),%es:(%edi)
  40c093:	69 62 67 63 63 00 47 	imul   $0x47006363,0x67(%edx),%esp
  40c09a:	4e                   	dec    %esi
  40c09b:	55                   	push   %ebp
  40c09c:	20 41 53             	and    %al,0x53(%ecx)
  40c09f:	20 32                	and    %dh,(%edx)
  40c0a1:	2e 32 38             	xor    %cs:(%eax),%bh
  40c0a4:	00 01                	add    %al,(%ecx)
  40c0a6:	80 54 1c 00 00       	adcb   $0x0,0x0(%esp,%ebx,1)

0040c0a7 <.debug_info>:
  40c0a7:	54                   	push   %esp
  40c0a8:	1c 00                	sbb    $0x0,%al
  40c0aa:	00 04 00             	add    %al,(%eax,%eax,1)
  40c0ad:	14 00                	adc    $0x0,%al
  40c0af:	00 00                	add    %al,(%eax)
  40c0b1:	04 01                	add    $0x1,%al
  40c0b3:	47                   	inc    %edi
  40c0b4:	4e                   	dec    %esi
  40c0b5:	55                   	push   %ebp
  40c0b6:	20 43 31             	and    %al,0x31(%ebx)
  40c0b9:	31 20                	xor    %esp,(%eax)
  40c0bb:	36 2e 33 2e          	ss xor %cs:(%esi),%ebp
  40c0bf:	30 20                	xor    %ah,(%eax)
  40c0c1:	2d 6d 74 75 6e       	sub    $0x6e75746d,%eax
  40c0c6:	65 3d 67 65 6e 65    	gs cmp $0x656e6567,%eax
  40c0cc:	72 69                	jb     40c137 <.debug_info+0x90>
  40c0ce:	63 20                	arpl   %sp,(%eax)
  40c0d0:	2d 6d 61 72 63       	sub    $0x6372616d,%eax
  40c0d5:	68 3d 69 35 38       	push   $0x3835693d
  40c0da:	36 20 2d 67 20 2d 67 	and    %ch,%ss:0x672d2067
  40c0e1:	20 2d 67 20 2d 4f    	and    %ch,0x4f2d2067
  40c0e7:	32 20                	xor    (%eax),%ah
  40c0e9:	2d 4f 32 20 2d       	sub    $0x2d20324f,%eax
  40c0ee:	4f                   	dec    %edi
  40c0ef:	32 20                	xor    (%eax),%ah
  40c0f1:	2d 66 62 75 69       	sub    $0x69756266,%eax
  40c0f6:	6c                   	insb   (%dx),%es:(%edi)
  40c0f7:	64 69 6e 67 2d 6c 69 	imul   $0x62696c2d,%fs:0x67(%esi),%ebp
  40c0fe:	62 
  40c0ff:	67 63 63 20          	arpl   %sp,0x20(%bp,%di)
  40c103:	2d 66 6e 6f 2d       	sub    $0x2d6f6e66,%eax
  40c108:	73 74                	jae    40c17e <.debug_info+0xd7>
  40c10a:	61                   	popa   
  40c10b:	63 6b 2d             	arpl   %bp,0x2d(%ebx)
  40c10e:	70 72                	jo     40c182 <.debug_info+0xdb>
  40c110:	6f                   	outsl  %ds:(%esi),(%dx)
  40c111:	74 65                	je     40c178 <.debug_info+0xd1>
  40c113:	63 74 6f 72          	arpl   %si,0x72(%edi,%ebp,2)
  40c117:	00 0c 2e             	add    %cl,(%esi,%ebp,1)
  40c11a:	2e 2f                	cs das 
  40c11c:	2e 2e 2f             	cs cs das 
  40c11f:	2e 2e 2f             	cs cs das 
  40c122:	73 72                	jae    40c196 <.debug_info+0xef>
  40c124:	63 2f                	arpl   %bp,(%edi)
  40c126:	67 63 63 2d          	arpl   %sp,0x2d(%bp,%di)
  40c12a:	36 2e 33 2e          	ss xor %cs:(%esi),%ebp
  40c12e:	30 2f                	xor    %ch,(%edi)
  40c130:	6c                   	insb   (%dx),%es:(%edi)
  40c131:	69 62 67 63 63 2f 6c 	imul   $0x6c2f6363,0x67(%edx),%esp
  40c138:	69 62 67 63 63 32 2e 	imul   $0x2e326363,0x67(%edx),%esp
  40c13f:	63 00                	arpl   %ax,(%eax)
  40c141:	2f                   	das    
  40c142:	68 6f 6d 65 2f       	push   $0x2f656d6f
  40c147:	6b 65 69 74          	imul   $0x74,0x69(%ebp),%esp
  40c14b:	68 2f 73 72 63       	push   $0x6372732f
  40c150:	2f                   	das    
  40c151:	6d                   	insl   (%dx),%es:(%edi)
  40c152:	69 6e 67 77 2f 67 63 	imul   $0x63672f77,0x67(%esi),%ebp
  40c159:	63 2d 62 75 69 6c    	arpl   %bp,0x6c697562
  40c15f:	64 2f                	fs das 
  40c161:	67 63 63 2d          	arpl   %sp,0x2d(%bp,%di)
  40c165:	36 2e 33 2e          	ss xor %cs:(%esi),%ebp
  40c169:	30 2d 6d 69 6e 67    	xor    %ch,0x676e696d
  40c16f:	77 33                	ja     40c1a4 <.debug_info+0xfd>
  40c171:	32 2d 63 72 6f 73    	xor    0x736f7263,%ch
  40c177:	73 2d                	jae    40c1a6 <.debug_info+0xff>
  40c179:	6e                   	outsb  %ds:(%esi),(%dx)
  40c17a:	61                   	popa   
  40c17b:	74 69                	je     40c1e6 <.debug_info+0x13f>
  40c17d:	76 65                	jbe    40c1e4 <.debug_info+0x13d>
  40c17f:	2f                   	das    
  40c180:	6d                   	insl   (%dx),%es:(%edi)
  40c181:	69 6e 67 77 33 32 2f 	imul   $0x2f323377,0x67(%esi),%ebp
  40c188:	6c                   	insb   (%dx),%es:(%edi)
  40c189:	69 62 67 63 63 00 71 	imul   $0x71006363,0x67(%edx),%esp
  40c190:	00 00                	add    %al,(%eax)
  40c192:	00 02                	add    %al,(%edx)
  40c194:	04 05                	add    $0x5,%al
  40c196:	69 6e 74 00 03 ec 00 	imul   $0xec0300,0x74(%esi),%ebp
  40c19d:	00 00                	add    %al,(%eax)
  40c19f:	02 04 07             	add    (%edi,%eax,1),%al
  40c1a2:	75 6e                	jne    40c212 <.debug_info+0x16b>
  40c1a4:	73 69                	jae    40c20f <.debug_info+0x168>
  40c1a6:	67 6e                	outsb  %ds:(%si),(%dx)
  40c1a8:	65 64 20 69 6e       	gs and %ch,%fs:0x6e(%ecx)
  40c1ad:	74 00                	je     40c1af <.debug_info+0x108>
  40c1af:	02 02                	add    (%edx),%al
  40c1b1:	07                   	pop    %es
  40c1b2:	73 68                	jae    40c21c <.debug_info+0x175>
  40c1b4:	6f                   	outsl  %ds:(%esi),(%dx)
  40c1b5:	72 74                	jb     40c22b <.debug_info+0x184>
  40c1b7:	20 75 6e             	and    %dh,0x6e(%ebp)
  40c1ba:	73 69                	jae    40c225 <.debug_info+0x17e>
  40c1bc:	67 6e                	outsb  %ds:(%si),(%dx)
  40c1be:	65 64 20 69 6e       	gs and %ch,%fs:0x6e(%ecx)
  40c1c3:	74 00                	je     40c1c5 <.debug_info+0x11e>
  40c1c5:	02 08                	add    (%eax),%cl
  40c1c7:	05 6c 6f 6e 67       	add    $0x676e6f6c,%eax
  40c1cc:	20 6c 6f 6e          	and    %ch,0x6e(%edi,%ebp,2)
  40c1d0:	67 20 69 6e          	and    %ch,0x6e(%bx,%di)
  40c1d4:	74 00                	je     40c1d6 <.debug_info+0x12f>
  40c1d6:	02 0c 04             	add    (%esp,%eax,1),%cl
  40c1d9:	6c                   	insb   (%dx),%es:(%edi)
  40c1da:	6f                   	outsl  %ds:(%esi),(%dx)
  40c1db:	6e                   	outsb  %ds:(%esi),(%dx)
  40c1dc:	67 20 64 6f          	and    %ah,0x6f(%si)
  40c1e0:	75 62                	jne    40c244 <.debug_info+0x19d>
  40c1e2:	6c                   	insb   (%dx),%es:(%edi)
  40c1e3:	65 00 02             	add    %al,%gs:(%edx)
  40c1e6:	01 06                	add    %eax,(%esi)
  40c1e8:	63 68 61             	arpl   %bp,0x61(%eax)
  40c1eb:	72 00                	jb     40c1ed <.debug_info+0x146>
  40c1ed:	03 3e                	add    (%esi),%edi
  40c1ef:	01 00                	add    %eax,(%eax)
  40c1f1:	00 02                	add    %al,(%edx)
  40c1f3:	04 05                	add    $0x5,%al
  40c1f5:	6c                   	insb   (%dx),%es:(%edi)
  40c1f6:	6f                   	outsl  %ds:(%esi),(%dx)
  40c1f7:	6e                   	outsb  %ds:(%esi),(%dx)
  40c1f8:	67 20 69 6e          	and    %ch,0x6e(%bx,%di)
  40c1fc:	74 00                	je     40c1fe <.debug_info+0x157>
  40c1fe:	04 5f                	add    $0x5f,%al
  40c200:	69 6f 62 75 66 00 20 	imul   $0x20006675,0x62(%edi),%ebp
  40c207:	01 d2                	add    %edx,%edx
  40c209:	de 01                	fiadd  (%ecx)
  40c20b:	00 00                	add    %al,(%eax)
  40c20d:	05 5f 70 74 72       	add    $0x7274705f,%eax
  40c212:	00 01                	add    %al,(%ecx)
  40c214:	d4 de                	aam    $0xde
  40c216:	01 00                	add    %eax,(%eax)
  40c218:	00 00                	add    %al,(%eax)
  40c21a:	05 5f 63 6e 74       	add    $0x746e635f,%eax
  40c21f:	00 01                	add    %al,(%ecx)
  40c221:	d5 ec                	aad    $0xec
  40c223:	00 00                	add    %al,(%eax)
  40c225:	00 04 05 5f 62 61 73 	add    %al,0x7361625f(,%eax,1)
  40c22c:	65 00 01             	add    %al,%gs:(%ecx)
  40c22f:	d6                   	(bad)  
  40c230:	de 01                	fiadd  (%ecx)
  40c232:	00 00                	add    %al,(%eax)
  40c234:	08 05 5f 66 6c 61    	or     %al,0x616c665f
  40c23a:	67 00 01             	add    %al,(%bx,%di)
  40c23d:	d7                   	xlat   %ds:(%ebx)
  40c23e:	ec                   	in     (%dx),%al
  40c23f:	00 00                	add    %al,(%eax)
  40c241:	00 0c 05 5f 66 69 6c 	add    %cl,0x6c69665f(,%eax,1)
  40c248:	65 00 01             	add    %al,%gs:(%ecx)
  40c24b:	d8 ec                	fsubr  %st(4),%st
  40c24d:	00 00                	add    %al,(%eax)
  40c24f:	00 10                	add    %dl,(%eax)
  40c251:	05 5f 63 68 61       	add    $0x6168635f,%eax
  40c256:	72 62                	jb     40c2ba <.debug_info+0x213>
  40c258:	75 66                	jne    40c2c0 <.debug_info+0x219>
  40c25a:	00 01                	add    %al,(%ecx)
  40c25c:	d9 ec                	fldlg2 
  40c25e:	00 00                	add    %al,(%eax)
  40c260:	00 14 05 5f 62 75 66 	add    %dl,0x6675625f(,%eax,1)
  40c267:	73 69                	jae    40c2d2 <.debug_info+0x22b>
  40c269:	7a 00                	jp     40c26b <.debug_info+0x1c4>
  40c26b:	01 da                	add    %ebx,%edx
  40c26d:	ec                   	in     (%dx),%al
  40c26e:	00 00                	add    %al,(%eax)
  40c270:	00 18                	add    %bl,(%eax)
  40c272:	05 5f 74 6d 70       	add    $0x706d745f,%eax
  40c277:	66 6e                	data16 outsb %ds:(%esi),(%dx)
  40c279:	61                   	popa   
  40c27a:	6d                   	insl   (%dx),%es:(%edi)
  40c27b:	65 00 01             	add    %al,%gs:(%ecx)
  40c27e:	db de                	fcmovnu %st(6),%st
  40c280:	01 00                	add    %eax,(%eax)
  40c282:	00 1c 00             	add    %bl,(%eax,%eax,1)
  40c285:	06                   	push   %es
  40c286:	04 3e                	add    $0x3e,%al
  40c288:	01 00                	add    %eax,(%eax)
  40c28a:	00 07                	add    %al,(%edi)
  40c28c:	46                   	inc    %esi
  40c28d:	49                   	dec    %ecx
  40c28e:	4c                   	dec    %esp
  40c28f:	45                   	inc    %ebp
  40c290:	00 01                	add    %al,(%ecx)
  40c292:	dc 57 01             	fcoml  0x1(%edi)
  40c295:	00 00                	add    %al,(%eax)
  40c297:	08 e4                	or     %ah,%ah
  40c299:	01 00                	add    %eax,(%eax)
  40c29b:	00 fb                	add    %bh,%bl
  40c29d:	01 00                	add    %eax,(%eax)
  40c29f:	00 09                	add    %cl,(%ecx)
  40c2a1:	00 0a                	add    %cl,(%edx)
  40c2a3:	5f                   	pop    %edi
  40c2a4:	69 6f 62 00 01 ef f0 	imul   $0xf0ef0100,0x62(%edi),%ebp
  40c2ab:	01 00                	add    %eax,(%eax)
  40c2ad:	00 02                	add    %al,(%edx)
  40c2af:	02 05 73 68 6f 72    	add    0x726f6873,%al
  40c2b5:	74 20                	je     40c2d7 <.debug_info+0x230>
  40c2b7:	69 6e 74 00 02 04 07 	imul   $0x7040200,0x74(%esi),%ebp
  40c2be:	6c                   	insb   (%dx),%es:(%edi)
  40c2bf:	6f                   	outsl  %ds:(%esi),(%dx)
  40c2c0:	6e                   	outsb  %ds:(%esi),(%dx)
  40c2c1:	67 20 75 6e          	and    %dh,0x6e(%di)
  40c2c5:	73 69                	jae    40c330 <.debug_info+0x289>
  40c2c7:	67 6e                	outsb  %ds:(%si),(%dx)
  40c2c9:	65 64 20 69 6e       	gs and %ch,%fs:0x6e(%ecx)
  40c2ce:	74 00                	je     40c2d0 <.debug_info+0x229>
  40c2d0:	0a 5f 61             	or     0x61(%edi),%bl
  40c2d3:	72 67                	jb     40c33c <.debug_info+0x295>
  40c2d5:	63 00                	arpl   %ax,(%eax)
  40c2d7:	02 63 ec             	add    -0x14(%ebx),%ah
  40c2da:	00 00                	add    %al,(%eax)
  40c2dc:	00 0a                	add    %cl,(%edx)
  40c2de:	5f                   	pop    %edi
  40c2df:	61                   	popa   
  40c2e0:	72 67                	jb     40c349 <.debug_info+0x2a2>
  40c2e2:	76 00                	jbe    40c2e4 <.debug_info+0x23d>
  40c2e4:	02 64 43 02          	add    0x2(%ebx,%eax,2),%ah
  40c2e8:	00 00                	add    %al,(%eax)
  40c2ea:	06                   	push   %es
  40c2eb:	04 de                	add    $0xde,%al
  40c2ed:	01 00                	add    %eax,(%eax)
  40c2ef:	00 0a                	add    %cl,(%edx)
  40c2f1:	5f                   	pop    %edi
  40c2f2:	5f                   	pop    %edi
  40c2f3:	6d                   	insl   (%dx),%es:(%edi)
  40c2f4:	62 5f 63             	bound  %ebx,0x63(%edi)
  40c2f7:	75 72                	jne    40c36b <.debug_info+0x2c4>
  40c2f9:	5f                   	pop    %edi
  40c2fa:	6d                   	insl   (%dx),%es:(%edi)
  40c2fb:	61                   	popa   
  40c2fc:	78 00                	js     40c2fe <.debug_info+0x257>
  40c2fe:	02 8e ec 00 00 00    	add    0xec(%esi),%cl
  40c304:	0a 5f 73             	or     0x73(%edi),%bl
  40c307:	79 73                	jns    40c37c <.debug_info+0x2d5>
  40c309:	5f                   	pop    %edi
  40c30a:	6e                   	outsb  %ds:(%esi),(%dx)
  40c30b:	65 72 72             	gs jb  40c380 <.debug_info+0x2d9>
  40c30e:	00 02                	add    %al,(%edx)
  40c310:	ca ec 00             	lret   $0xec
  40c313:	00 00                	add    %al,(%eax)
  40c315:	08 de                	or     %bl,%dh
  40c317:	01 00                	add    %eax,(%eax)
  40c319:	00 79 02             	add    %bh,0x2(%ecx)
  40c31c:	00 00                	add    %al,(%eax)
  40c31e:	09 00                	or     %eax,(%eax)
  40c320:	0a 5f 73             	or     0x73(%edi),%bl
  40c323:	79 73                	jns    40c398 <.debug_info+0x2f1>
  40c325:	5f                   	pop    %edi
  40c326:	65 72 72             	gs jb  40c39b <.debug_info+0x2f4>
  40c329:	6c                   	insb   (%dx),%es:(%edi)
  40c32a:	69 73 74 00 02 e3 6e 	imul   $0x6ee30200,0x74(%ebx),%esi
  40c331:	02 00                	add    (%eax),%al
  40c333:	00 0a                	add    %cl,(%edx)
  40c335:	5f                   	pop    %edi
  40c336:	6f                   	outsl  %ds:(%esi),(%dx)
  40c337:	73 76                	jae    40c3af <.debug_info+0x308>
  40c339:	65 72 00             	gs jb  40c33c <.debug_info+0x295>
  40c33c:	02 fa                	add    %dl,%bh
  40c33e:	f8                   	clc    
  40c33f:	00 00                	add    %al,(%eax)
  40c341:	00 0a                	add    %cl,(%edx)
  40c343:	5f                   	pop    %edi
  40c344:	77 69                	ja     40c3af <.debug_info+0x308>
  40c346:	6e                   	outsb  %ds:(%esi),(%dx)
  40c347:	76 65                	jbe    40c3ae <.debug_info+0x307>
  40c349:	72 00                	jb     40c34b <.debug_info+0x2a4>
  40c34b:	02 fb                	add    %bl,%bh
  40c34d:	f8                   	clc    
  40c34e:	00 00                	add    %al,(%eax)
  40c350:	00 0a                	add    %cl,(%edx)
  40c352:	5f                   	pop    %edi
  40c353:	77 69                	ja     40c3be <.debug_info+0x317>
  40c355:	6e                   	outsb  %ds:(%esi),(%dx)
  40c356:	6d                   	insl   (%dx),%es:(%edi)
  40c357:	61                   	popa   
  40c358:	6a 6f                	push   $0x6f
  40c35a:	72 00                	jb     40c35c <.debug_info+0x2b5>
  40c35c:	02 fc                	add    %ah,%bh
  40c35e:	f8                   	clc    
  40c35f:	00 00                	add    %al,(%eax)
  40c361:	00 0a                	add    %cl,(%edx)
  40c363:	5f                   	pop    %edi
  40c364:	77 69                	ja     40c3cf <.debug_info+0x328>
  40c366:	6e                   	outsb  %ds:(%esi),(%dx)
  40c367:	6d                   	insl   (%dx),%es:(%edi)
  40c368:	69 6e 6f 72 00 02 fd 	imul   $0xfd020072,0x6f(%esi),%ebp
  40c36f:	f8                   	clc    
  40c370:	00 00                	add    %al,(%eax)
  40c372:	00 0b                	add    %cl,(%ebx)
  40c374:	5f                   	pop    %edi
  40c375:	66 6d                	insw   (%dx),%es:(%edi)
  40c377:	6f                   	outsl  %ds:(%esi),(%dx)
  40c378:	64 65 00 02          	fs add %al,%gs:(%edx)
  40c37c:	45                   	inc    %ebp
  40c37d:	01 ec                	add    %ebp,%esp
  40c37f:	00 00                	add    %al,(%eax)
  40c381:	00 02                	add    %al,(%edx)
  40c383:	04 07                	add    $0x7,%al
  40c385:	73 69                	jae    40c3f0 <.debug_info+0x349>
  40c387:	7a 65                	jp     40c3ee <.debug_info+0x347>
  40c389:	74 79                	je     40c404 <.debug_info+0x35d>
  40c38b:	70 65                	jo     40c3f2 <.debug_info+0x34b>
  40c38d:	00 0a                	add    %cl,(%edx)
  40c38f:	6f                   	outsl  %ds:(%esi),(%dx)
  40c390:	70 74                	jo     40c406 <.debug_info+0x35f>
  40c392:	69 6e 64 00 03 3c ec 	imul   $0xec3c0300,0x64(%esi),%ebp
  40c399:	00 00                	add    %al,(%eax)
  40c39b:	00 0a                	add    %cl,(%edx)
  40c39d:	6f                   	outsl  %ds:(%esi),(%dx)
  40c39e:	70 74                	jo     40c414 <.debug_info+0x36d>
  40c3a0:	6f                   	outsl  %ds:(%esi),(%dx)
  40c3a1:	70 74                	jo     40c417 <.debug_info+0x370>
  40c3a3:	00 03                	add    %al,(%ebx)
  40c3a5:	3d ec 00 00 00       	cmp    $0xec,%eax
  40c3aa:	0a 6f 70             	or     0x70(%edi),%ch
  40c3ad:	74 65                	je     40c414 <.debug_info+0x36d>
  40c3af:	72 72                	jb     40c423 <.debug_info+0x37c>
  40c3b1:	00 03                	add    %al,(%ebx)
  40c3b3:	3e ec                	ds in  (%dx),%al
  40c3b5:	00 00                	add    %al,(%eax)
  40c3b7:	00 0a                	add    %cl,(%edx)
  40c3b9:	6f                   	outsl  %ds:(%esi),(%dx)
  40c3ba:	70 74                	jo     40c430 <.debug_info+0x389>
  40c3bc:	61                   	popa   
  40c3bd:	72 67                	jb     40c426 <.debug_info+0x37f>
  40c3bf:	00 03                	add    %al,(%ebx)
  40c3c1:	41                   	inc    %ecx
  40c3c2:	de 01                	fiadd  (%ecx)
  40c3c4:	00 00                	add    %al,(%eax)
  40c3c6:	0b 5f 64             	or     0x64(%edi),%ebx
  40c3c9:	61                   	popa   
  40c3ca:	79 6c                	jns    40c438 <.debug_info+0x391>
  40c3cc:	69 67 68 74 00 04 5c 	imul   $0x5c040074,0x68(%edi),%esp
  40c3d3:	01 ec                	add    %ebp,%esp
  40c3d5:	00 00                	add    %al,(%eax)
  40c3d7:	00 0b                	add    %cl,(%ebx)
  40c3d9:	5f                   	pop    %edi
  40c3da:	74 69                	je     40c445 <.debug_info+0x39e>
  40c3dc:	6d                   	insl   (%dx),%es:(%edi)
  40c3dd:	65 7a 6f             	gs jp  40c44f <.debug_info+0x3a8>
  40c3e0:	6e                   	outsb  %ds:(%esi),(%dx)
  40c3e1:	65 00 04 5d 01 4b 01 	add    %al,%gs:0x14b01(,%ebx,2)
  40c3e8:	00 
  40c3e9:	00 08                	add    %cl,(%eax)
  40c3eb:	de 01                	fiadd  (%ecx)
  40c3ed:	00 00                	add    %al,(%eax)
  40c3ef:	53                   	push   %ebx
  40c3f0:	03 00                	add    (%eax),%eax
  40c3f2:	00 0c db             	add    %cl,(%ebx,%ebx,8)
  40c3f5:	02 00                	add    (%eax),%al
  40c3f7:	00 01                	add    %al,(%ecx)
  40c3f9:	00 0b                	add    %cl,(%ebx)
  40c3fb:	5f                   	pop    %edi
  40c3fc:	74 7a                	je     40c478 <.debug_info+0x3d1>
  40c3fe:	6e                   	outsb  %ds:(%esi),(%dx)
  40c3ff:	61                   	popa   
  40c400:	6d                   	insl   (%dx),%es:(%edi)
  40c401:	65 00 04 5e          	add    %al,%gs:(%esi,%ebx,2)
  40c405:	01 43 03             	add    %eax,0x3(%ebx)
  40c408:	00 00                	add    %al,(%eax)
  40c40a:	0b 64 61 79          	or     0x79(%ecx,%eiz,2),%esp
  40c40e:	6c                   	insb   (%dx),%es:(%edi)
  40c40f:	69 67 68 74 00 04 7d 	imul   $0x7d040074,0x68(%edi),%esp
  40c416:	01 ec                	add    %ebp,%esp
  40c418:	00 00                	add    %al,(%eax)
  40c41a:	00 0b                	add    %cl,(%ebx)
  40c41c:	74 69                	je     40c487 <.debug_info+0x3e0>
  40c41e:	6d                   	insl   (%dx),%es:(%edi)
  40c41f:	65 7a 6f             	gs jp  40c491 <.debug_info+0x3ea>
  40c422:	6e                   	outsb  %ds:(%esi),(%dx)
  40c423:	65 00 04 7e          	add    %al,%gs:(%esi,%edi,2)
  40c427:	01 4b 01             	add    %ecx,0x1(%ebx)
  40c42a:	00 00                	add    %al,(%eax)
  40c42c:	0b 74 7a 6e          	or     0x6e(%edx,%edi,2),%esi
  40c430:	61                   	popa   
  40c431:	6d                   	insl   (%dx),%es:(%edi)
  40c432:	65 00 04 7f          	add    %al,%gs:(%edi,%edi,2)
  40c436:	01 43 03             	add    %eax,0x3(%ebx)
  40c439:	00 00                	add    %al,(%eax)
  40c43b:	07                   	pop    %es
  40c43c:	68 61 73 68 76       	push   $0x76687361
  40c441:	61                   	popa   
  40c442:	6c                   	insb   (%dx),%es:(%edi)
  40c443:	5f                   	pop    %edi
  40c444:	74 00                	je     40c446 <.debug_info+0x39f>
  40c446:	05 2a f8 00 00       	add    $0xf82a,%eax
  40c44b:	00 07                	add    %al,(%edi)
  40c44d:	68 74 61 62 5f       	push   $0x5f626174
  40c452:	68 61 73 68 00       	push   $0x687361
  40c457:	05 2f b6 03 00       	add    $0x3b62f,%eax
  40c45c:	00 06                	add    %al,(%esi)
  40c45e:	04 bc                	add    $0xbc,%al
  40c460:	03 00                	add    (%eax),%eax
  40c462:	00 0d 94 03 00 00    	add    %cl,0x394
  40c468:	cb                   	lret   
  40c469:	03 00                	add    (%eax),%eax
  40c46b:	00 0e                	add    %cl,(%esi)
  40c46d:	cb                   	lret   
  40c46e:	03 00                	add    (%eax),%eax
  40c470:	00 00                	add    %al,(%eax)
  40c472:	06                   	push   %es
  40c473:	04 d1                	add    $0xd1,%al
  40c475:	03 00                	add    (%eax),%eax
  40c477:	00 0f                	add    %cl,(%edi)
  40c479:	07                   	pop    %es
  40c47a:	68 74 61 62 5f       	push   $0x5f626174
  40c47f:	65 71 00             	gs jno 40c482 <.debug_info+0x3db>
  40c482:	05 36 e1 03 00       	add    $0x3e136,%eax
  40c487:	00 06                	add    %al,(%esi)
  40c489:	04 e7                	add    $0xe7,%al
  40c48b:	03 00                	add    (%eax),%eax
  40c48d:	00 0d ec 00 00 00    	add    %cl,0xec
  40c493:	fb                   	sti    
  40c494:	03 00                	add    (%eax),%eax
  40c496:	00 0e                	add    %cl,(%esi)
  40c498:	cb                   	lret   
  40c499:	03 00                	add    (%eax),%eax
  40c49b:	00 0e                	add    %cl,(%esi)
  40c49d:	cb                   	lret   
  40c49e:	03 00                	add    (%eax),%eax
  40c4a0:	00 00                	add    %al,(%eax)
  40c4a2:	0a 68 74             	or     0x74(%eax),%ch
  40c4a5:	61                   	popa   
  40c4a6:	62 5f 68             	bound  %ebx,0x68(%edi)
  40c4a9:	61                   	popa   
  40c4aa:	73 68                	jae    40c514 <.debug_info+0x46d>
  40c4ac:	5f                   	pop    %edi
  40c4ad:	70 6f                	jo     40c51e <.debug_info+0x477>
  40c4af:	69 6e 74 65 72 00 05 	imul   $0x5007265,0x74(%esi),%ebp
  40c4b6:	bb a5 03 00 00       	mov    $0x3a5,%ebx
  40c4bb:	0a 68 74             	or     0x74(%eax),%ch
  40c4be:	61                   	popa   
  40c4bf:	62 5f 65             	bound  %ebx,0x65(%edi)
  40c4c2:	71 5f                	jno    40c523 <.debug_info+0x47c>
  40c4c4:	70 6f                	jo     40c535 <.debug_info+0x48e>
  40c4c6:	69 6e 74 65 72 00 05 	imul   $0x5007265,0x74(%esi),%ebp
  40c4cd:	be d2 03 00 00       	mov    $0x3d2,%esi
  40c4d2:	02 01                	add    (%ecx),%al
  40c4d4:	08 75 6e             	or     %dh,0x6e(%ebp)
  40c4d7:	73 69                	jae    40c542 <.debug_info+0x49b>
  40c4d9:	67 6e                	outsb  %ds:(%si),(%dx)
  40c4db:	65 64 20 63 68       	gs and %ah,%fs:0x68(%ebx)
  40c4e0:	61                   	popa   
  40c4e1:	72 00                	jb     40c4e3 <.debug_info+0x43c>
  40c4e3:	10 73 74             	adc    %dh,0x74(%ebx)
  40c4e6:	72 69                	jb     40c551 <.debug_info+0x4aa>
  40c4e8:	6e                   	outsb  %ds:(%esi),(%dx)
  40c4e9:	67 6f                	outsl  %ds:(%si),(%dx)
  40c4eb:	70 5f                	jo     40c54c <.debug_info+0x4a5>
  40c4ed:	61                   	popa   
  40c4ee:	6c                   	insb   (%dx),%es:(%edi)
  40c4ef:	67 00 04             	add    %al,(%si)
  40c4f2:	f8                   	clc    
  40c4f3:	00 00                	add    %al,(%eax)
  40c4f5:	00 08                	add    %cl,(%eax)
  40c4f7:	1d e8 04 00 00       	sbb    $0x4e8,%eax
  40c4fc:	11 6e 6f             	adc    %ebp,0x6f(%esi)
  40c4ff:	5f                   	pop    %edi
  40c500:	73 74                	jae    40c576 <.debug_info+0x4cf>
  40c502:	72 69                	jb     40c56d <.debug_info+0x4c6>
  40c504:	6e                   	outsb  %ds:(%esi),(%dx)
  40c505:	67 6f                	outsl  %ds:(%si),(%dx)
  40c507:	70 00                	jo     40c509 <.debug_info+0x462>
  40c509:	00 11                	add    %dl,(%ecx)
  40c50b:	6c                   	insb   (%dx),%es:(%edi)
  40c50c:	69 62 63 61 6c 6c 00 	imul   $0x6c6c61,0x63(%edx),%esp
  40c513:	01 11                	add    %edx,(%ecx)
  40c515:	72 65                	jb     40c57c <.debug_info+0x4d5>
  40c517:	70 5f                	jo     40c578 <.debug_info+0x4d1>
  40c519:	70 72                	jo     40c58d <.debug_info+0x4e6>
  40c51b:	65 66 69 78 5f 31 5f 	imul   $0x5f31,%gs:0x5f(%eax),%di
  40c522:	62 79 74             	bound  %edi,0x74(%ecx)
  40c525:	65 00 02             	add    %al,%gs:(%edx)
  40c528:	11 72 65             	adc    %esi,0x65(%edx)
  40c52b:	70 5f                	jo     40c58c <.debug_info+0x4e5>
  40c52d:	70 72                	jo     40c5a1 <.debug_info+0x4fa>
  40c52f:	65 66 69 78 5f 34 5f 	imul   $0x5f34,%gs:0x5f(%eax),%di
  40c536:	62 79 74             	bound  %edi,0x74(%ecx)
  40c539:	65 00 03             	add    %al,%gs:(%ebx)
  40c53c:	11 72 65             	adc    %esi,0x65(%edx)
  40c53f:	70 5f                	jo     40c5a0 <.debug_info+0x4f9>
  40c541:	70 72                	jo     40c5b5 <.debug_info+0x50e>
  40c543:	65 66 69 78 5f 38 5f 	imul   $0x5f38,%gs:0x5f(%eax),%di
  40c54a:	62 79 74             	bound  %edi,0x74(%ecx)
  40c54d:	65 00 04 11          	add    %al,%gs:(%ecx,%edx,1)
  40c551:	6c                   	insb   (%dx),%es:(%edi)
  40c552:	6f                   	outsl  %ds:(%esi),(%dx)
  40c553:	6f                   	outsl  %ds:(%esi),(%dx)
  40c554:	70 5f                	jo     40c5b5 <.debug_info+0x50e>
  40c556:	31 5f 62             	xor    %ebx,0x62(%edi)
  40c559:	79 74                	jns    40c5cf <.debug_info+0x528>
  40c55b:	65 00 05 11 6c 6f 6f 	add    %al,%gs:0x6f6f6c11
  40c562:	70 00                	jo     40c564 <.debug_info+0x4bd>
  40c564:	06                   	push   %es
  40c565:	11 75 6e             	adc    %esi,0x6e(%ebp)
  40c568:	72 6f                	jb     40c5d9 <.debug_info+0x532>
  40c56a:	6c                   	insb   (%dx),%es:(%edi)
  40c56b:	6c                   	insb   (%dx),%es:(%edi)
  40c56c:	65 64 5f             	gs fs pop %edi
  40c56f:	6c                   	insb   (%dx),%es:(%edi)
  40c570:	6f                   	outsl  %ds:(%esi),(%dx)
  40c571:	6f                   	outsl  %ds:(%esi),(%dx)
  40c572:	70 00                	jo     40c574 <.debug_info+0x4cd>
  40c574:	07                   	pop    %es
  40c575:	11 76 65             	adc    %esi,0x65(%esi)
  40c578:	63 74 6f 72          	arpl   %si,0x72(%edi,%ebp,2)
  40c57c:	5f                   	pop    %edi
  40c57d:	6c                   	insb   (%dx),%es:(%edi)
  40c57e:	6f                   	outsl  %ds:(%esi),(%dx)
  40c57f:	6f                   	outsl  %ds:(%esi),(%dx)
  40c580:	70 00                	jo     40c582 <.debug_info+0x4db>
  40c582:	08 11                	or     %dl,(%ecx)
  40c584:	6c                   	insb   (%dx),%es:(%edi)
  40c585:	61                   	popa   
  40c586:	73 74                	jae    40c5fc <.debug_info+0x555>
  40c588:	5f                   	pop    %edi
  40c589:	61                   	popa   
  40c58a:	6c                   	insb   (%dx),%es:(%edi)
  40c58b:	67 00 09             	add    %cl,(%bx,%di)
  40c58e:	00 03                	add    %al,(%ebx)
  40c590:	3c 04                	cmp    $0x4,%al
  40c592:	00 00                	add    %al,(%eax)
  40c594:	08 03                	or     %al,(%ebx)
  40c596:	05 00 00 f8 04       	add    $0x4f80000,%eax
  40c59b:	00 00                	add    %al,(%eax)
  40c59d:	09 00                	or     %eax,(%eax)
  40c59f:	03 ed                	add    %ebp,%ebp
  40c5a1:	04 00                	add    $0x0,%al
  40c5a3:	00 06                	add    %al,(%esi)
  40c5a5:	04 46                	add    $0x46,%al
  40c5a7:	01 00                	add    %eax,(%eax)
  40c5a9:	00 03                	add    %al,(%ebx)
  40c5ab:	fd                   	std    
  40c5ac:	04 00                	add    $0x0,%al
  40c5ae:	00 0b                	add    %cl,(%ebx)
  40c5b0:	75 6e                	jne    40c620 <.debug_info+0x579>
  40c5b2:	73 70                	jae    40c624 <.debug_info+0x57d>
  40c5b4:	65 63 5f 73          	arpl   %bx,%gs:0x73(%edi)
  40c5b8:	74 72                	je     40c62c <.debug_info+0x585>
  40c5ba:	69 6e 67 73 00 06 42 	imul   $0x42060073,0x67(%esi),%ebp
  40c5c1:	01 f8                	add    %edi,%eax
  40c5c3:	04 00                	add    $0x0,%al
  40c5c5:	00 0b                	add    %cl,(%ebx)
  40c5c7:	75 6e                	jne    40c637 <.debug_info+0x590>
  40c5c9:	73 70                	jae    40c63b <.debug_info+0x594>
  40c5cb:	65 63 76 5f          	arpl   %si,%gs:0x5f(%esi)
  40c5cf:	73 74                	jae    40c645 <.debug_info+0x59e>
  40c5d1:	72 69                	jb     40c63c <.debug_info+0x595>
  40c5d3:	6e                   	outsb  %ds:(%esi),(%dx)
  40c5d4:	67 73 00             	addr16 jae 40c5d7 <.debug_info+0x530>
  40c5d7:	06                   	push   %es
  40c5d8:	87 01                	xchg   %eax,(%ecx)
  40c5da:	f8                   	clc    
  40c5db:	04 00                	add    $0x0,%al
  40c5dd:	00 04 73             	add    %al,(%ebx,%esi,2)
  40c5e0:	74 72                	je     40c654 <.debug_info+0x5ad>
  40c5e2:	69 6e 67 6f 70 5f 73 	imul   $0x735f706f,0x67(%esi),%ebp
  40c5e9:	74 72                	je     40c65d <.debug_info+0x5b6>
  40c5eb:	61                   	popa   
  40c5ec:	74 65                	je     40c653 <.debug_info+0x5ac>
  40c5ee:	67 79 00             	addr16 jns 40c5f1 <.debug_info+0x54a>
  40c5f1:	0c 07                	or     $0x7,%al
  40c5f3:	c3                   	ret    
  40c5f4:	7a 05                	jp     40c5fb <.debug_info+0x554>
  40c5f6:	00 00                	add    %al,(%eax)
  40c5f8:	05 6d 61 78 00       	add    $0x78616d,%eax
  40c5fd:	07                   	pop    %es
  40c5fe:	c4                   	(bad)  
  40c5ff:	f3 00 00             	repz add %al,(%eax)
  40c602:	00 00                	add    %al,(%eax)
  40c604:	05 61 6c 67 00       	add    $0x676c61,%eax
  40c609:	07                   	pop    %es
  40c60a:	c5 e8 04             	(bad)  
  40c60d:	00 00                	add    %al,(%eax)
  40c60f:	04 05                	add    $0x5,%al
  40c611:	6e                   	outsb  %ds:(%esi),(%dx)
  40c612:	6f                   	outsl  %ds:(%esi),(%dx)
  40c613:	61                   	popa   
  40c614:	6c                   	insb   (%dx),%es:(%edi)
  40c615:	69 67 6e 00 07 c6 ec 	imul   $0xecc60700,0x6e(%edi),%esp
  40c61c:	00 00                	add    %al,(%eax)
  40c61e:	00 08                	add    %cl,(%eax)
  40c620:	00 03                	add    %al,(%ebx)
  40c622:	37                   	aaa    
  40c623:	05 00 00 04 73       	add    $0x73040000,%eax
  40c628:	74 72                	je     40c69c <.debug_info+0x5f5>
  40c62a:	69 6e 67 6f 70 5f 61 	imul   $0x615f706f,0x67(%esi),%ebp
  40c631:	6c                   	insb   (%dx),%es:(%edi)
  40c632:	67 73 00             	addr16 jae 40c635 <.debug_info+0x58e>
  40c635:	34 07                	xor    $0x7,%al
  40c637:	c0 b8 05 00 00 05 75 	sarb   $0x75,0x5000005(%eax)
  40c63e:	6e                   	outsb  %ds:(%esi),(%dx)
  40c63f:	6b 6e 6f 77          	imul   $0x77,0x6f(%esi),%ebp
  40c643:	6e                   	outsb  %ds:(%esi),(%dx)
  40c644:	5f                   	pop    %edi
  40c645:	73 69                	jae    40c6b0 <.debug_info+0x609>
  40c647:	7a 65                	jp     40c6ae <.debug_info+0x607>
  40c649:	00 07                	add    %al,(%edi)
  40c64b:	c2 e8 04             	ret    $0x4e8
  40c64e:	00 00                	add    %al,(%eax)
  40c650:	00 05 73 69 7a 65    	add    %al,0x657a6973
  40c656:	00 07                	add    %al,(%edi)
  40c658:	c7                   	(bad)  
  40c659:	c8 05 00 00          	enter  $0x5,$0x0
  40c65d:	04 00                	add    $0x0,%al
  40c65f:	08 7a 05             	or     %bh,0x5(%edx)
  40c662:	00 00                	add    %al,(%eax)
  40c664:	c8 05 00 00          	enter  $0x5,$0x0
  40c668:	0c db                	or     $0xdb,%al
  40c66a:	02 00                	add    (%eax),%al
  40c66c:	00 03                	add    %al,(%ebx)
  40c66e:	00 03                	add    %al,(%ebx)
  40c670:	b8 05 00 00 12       	mov    $0x12000005,%eax
  40c675:	70 72                	jo     40c6e9 <.debug_info+0x642>
  40c677:	6f                   	outsl  %ds:(%esi),(%dx)
  40c678:	63 65 73             	arpl   %sp,0x73(%ebp)
  40c67b:	73 6f                	jae    40c6ec <.debug_info+0x645>
  40c67d:	72 5f                	jb     40c6de <.debug_info+0x637>
  40c67f:	63 6f 73             	arpl   %bp,0x73(%edi)
  40c682:	74 73                	je     40c6f7 <.debug_info+0x650>
  40c684:	00 18                	add    %bl,(%eax)
  40c686:	01 07                	add    %eax,(%edi)
  40c688:	cc                   	int3   
  40c689:	a5                   	movsl  %ds:(%esi),%es:(%edi)
  40c68a:	09 00                	or     %eax,(%eax)
  40c68c:	00 05 61 64 64 00    	add    %al,0x646461
  40c692:	07                   	pop    %es
  40c693:	cd f3                	int    $0xf3
  40c695:	00 00                	add    %al,(%eax)
  40c697:	00 00                	add    %al,(%eax)
  40c699:	05 6c 65 61 00       	add    $0x61656c,%eax
  40c69e:	07                   	pop    %es
  40c69f:	ce                   	into   
  40c6a0:	f3 00 00             	repz add %al,(%eax)
  40c6a3:	00 04 05 73 68 69 66 	add    %al,0x66696873(,%eax,1)
  40c6aa:	74 5f                	je     40c70b <.debug_info+0x664>
  40c6ac:	76 61                	jbe    40c70f <.debug_info+0x668>
  40c6ae:	72 00                	jb     40c6b0 <.debug_info+0x609>
  40c6b0:	07                   	pop    %es
  40c6b1:	cf                   	iret   
  40c6b2:	f3 00 00             	repz add %al,(%eax)
  40c6b5:	00 08                	add    %cl,(%eax)
  40c6b7:	05 73 68 69 66       	add    $0x66696873,%eax
  40c6bc:	74 5f                	je     40c71d <.debug_info+0x676>
  40c6be:	63 6f 6e             	arpl   %bp,0x6e(%edi)
  40c6c1:	73 74                	jae    40c737 <.debug_info+0x690>
  40c6c3:	00 07                	add    %al,(%edi)
  40c6c5:	d0                   	(bad)  
  40c6c6:	f3 00 00             	repz add %al,(%eax)
  40c6c9:	00 0c 05 6d 75 6c 74 	add    %cl,0x746c756d(,%eax,1)
  40c6d0:	5f                   	pop    %edi
  40c6d1:	69 6e 69 74 00 07 d1 	imul   $0xd1070074,0x69(%esi),%ebp
  40c6d8:	ba 09 00 00 10       	mov    $0x10000009,%edx
  40c6dd:	05 6d 75 6c 74       	add    $0x746c756d,%eax
  40c6e2:	5f                   	pop    %edi
  40c6e3:	62 69 74             	bound  %ebp,0x74(%ecx)
  40c6e6:	00 07                	add    %al,(%edi)
  40c6e8:	d3                   	(bad)  
  40c6e9:	f3 00 00             	repz add %al,(%eax)
  40c6ec:	00 24 05 64 69 76 69 	add    %ah,0x69766964(,%eax,1)
  40c6f3:	64 65 00 07          	fs add %al,%gs:(%edi)
  40c6f7:	d4 ba                	aam    $0xba
  40c6f9:	09 00                	or     %eax,(%eax)
  40c6fb:	00 28                	add    %ch,(%eax)
  40c6fd:	05 6d 6f 76 73       	add    $0x73766f6d,%eax
  40c702:	78 00                	js     40c704 <.debug_info+0x65d>
  40c704:	07                   	pop    %es
  40c705:	d6                   	(bad)  
  40c706:	ec                   	in     (%dx),%al
  40c707:	00 00                	add    %al,(%eax)
  40c709:	00 3c 05 6d 6f 76 7a 	add    %bh,0x7a766f6d(,%eax,1)
  40c710:	78 00                	js     40c712 <.debug_info+0x66b>
  40c712:	07                   	pop    %es
  40c713:	d7                   	xlat   %ds:(%ebx)
  40c714:	ec                   	in     (%dx),%al
  40c715:	00 00                	add    %al,(%eax)
  40c717:	00 40 05             	add    %al,0x5(%eax)
  40c71a:	6c                   	insb   (%dx),%es:(%edi)
  40c71b:	61                   	popa   
  40c71c:	72 67                	jb     40c785 <.debug_info+0x6de>
  40c71e:	65 5f                	gs pop %edi
  40c720:	69 6e 73 6e 00 07 d8 	imul   $0xd807006e,0x73(%esi),%ebp
  40c727:	f3 00 00             	repz add %al,(%eax)
  40c72a:	00 44 05 6d          	add    %al,0x6d(%ebp,%eax,1)
  40c72e:	6f                   	outsl  %ds:(%esi),(%dx)
  40c72f:	76 65                	jbe    40c796 <.debug_info+0x6ef>
  40c731:	5f                   	pop    %edi
  40c732:	72 61                	jb     40c795 <.debug_info+0x6ee>
  40c734:	74 69                	je     40c79f <.debug_info+0x6f8>
  40c736:	6f                   	outsl  %ds:(%esi),(%dx)
  40c737:	00 07                	add    %al,(%edi)
  40c739:	d9 f3                	fpatan 
  40c73b:	00 00                	add    %al,(%eax)
  40c73d:	00 48 05             	add    %cl,0x5(%eax)
  40c740:	6d                   	insl   (%dx),%es:(%edi)
  40c741:	6f                   	outsl  %ds:(%esi),(%dx)
  40c742:	76 7a                	jbe    40c7be <.debug_info+0x717>
  40c744:	62 6c 5f 6c          	bound  %ebp,0x6c(%edi,%ebx,2)
  40c748:	6f                   	outsl  %ds:(%esi),(%dx)
  40c749:	61                   	popa   
  40c74a:	64 00 07             	add    %al,%fs:(%edi)
  40c74d:	db f3                	fcomi  %st(3),%st
  40c74f:	00 00                	add    %al,(%eax)
  40c751:	00 4c 05 69          	add    %cl,0x69(%ebp,%eax,1)
  40c755:	6e                   	outsb  %ds:(%esi),(%dx)
  40c756:	74 5f                	je     40c7b7 <.debug_info+0x710>
  40c758:	6c                   	insb   (%dx),%es:(%edi)
  40c759:	6f                   	outsl  %ds:(%esi),(%dx)
  40c75a:	61                   	popa   
  40c75b:	64 00 07             	add    %al,%fs:(%edi)
  40c75e:	dc cf                	fmul   %st,%st(7)
  40c760:	09 00                	or     %eax,(%eax)
  40c762:	00 50 05             	add    %dl,0x5(%eax)
  40c765:	69 6e 74 5f 73 74 6f 	imul   $0x6f74735f,0x74(%esi),%ebp
  40c76c:	72 65                	jb     40c7d3 <.debug_info+0x72c>
  40c76e:	00 07                	add    %al,(%edi)
  40c770:	df cf                	(bad)  
  40c772:	09 00                	or     %eax,(%eax)
  40c774:	00 5c 05 66          	add    %bl,0x66(%ebp,%eax,1)
  40c778:	70 5f                	jo     40c7d9 <.debug_info+0x732>
  40c77a:	6d                   	insl   (%dx),%es:(%edi)
  40c77b:	6f                   	outsl  %ds:(%esi),(%dx)
  40c77c:	76 65                	jbe    40c7e3 <.debug_info+0x73c>
  40c77e:	00 07                	add    %al,(%edi)
  40c780:	e1 f3                	loope  40c775 <.debug_info+0x6ce>
  40c782:	00 00                	add    %al,(%eax)
  40c784:	00 68 05             	add    %ch,0x5(%eax)
  40c787:	66 70 5f             	data16 jo 40c7e9 <.debug_info+0x742>
  40c78a:	6c                   	insb   (%dx),%es:(%edi)
  40c78b:	6f                   	outsl  %ds:(%esi),(%dx)
  40c78c:	61                   	popa   
  40c78d:	64 00 07             	add    %al,%fs:(%edi)
  40c790:	e2 cf                	loop   40c761 <.debug_info+0x6ba>
  40c792:	09 00                	or     %eax,(%eax)
  40c794:	00 6c 05 66          	add    %ch,0x66(%ebp,%eax,1)
  40c798:	70 5f                	jo     40c7f9 <.debug_info+0x752>
  40c79a:	73 74                	jae    40c810 <.debug_info+0x769>
  40c79c:	6f                   	outsl  %ds:(%esi),(%dx)
  40c79d:	72 65                	jb     40c804 <.debug_info+0x75d>
  40c79f:	00 07                	add    %al,(%edi)
  40c7a1:	e4 cf                	in     $0xcf,%al
  40c7a3:	09 00                	or     %eax,(%eax)
  40c7a5:	00 78 05             	add    %bh,0x5(%eax)
  40c7a8:	6d                   	insl   (%dx),%es:(%edi)
  40c7a9:	6d                   	insl   (%dx),%es:(%edi)
  40c7aa:	78 5f                	js     40c80b <.debug_info+0x764>
  40c7ac:	6d                   	insl   (%dx),%es:(%edi)
  40c7ad:	6f                   	outsl  %ds:(%esi),(%dx)
  40c7ae:	76 65                	jbe    40c815 <.debug_info+0x76e>
  40c7b0:	00 07                	add    %al,(%edi)
  40c7b2:	e6 f3                	out    %al,$0xf3
  40c7b4:	00 00                	add    %al,(%eax)
  40c7b6:	00 84 05 6d 6d 78 5f 	add    %al,0x5f786d6d(%ebp,%eax,1)
  40c7bd:	6c                   	insb   (%dx),%es:(%edi)
  40c7be:	6f                   	outsl  %ds:(%esi),(%dx)
  40c7bf:	61                   	popa   
  40c7c0:	64 00 07             	add    %al,%fs:(%edi)
  40c7c3:	e7 e4                	out    %eax,$0xe4
  40c7c5:	09 00                	or     %eax,(%eax)
  40c7c7:	00 88 05 6d 6d 78    	add    %cl,0x786d6d05(%eax)
  40c7cd:	5f                   	pop    %edi
  40c7ce:	73 74                	jae    40c844 <.debug_info+0x79d>
  40c7d0:	6f                   	outsl  %ds:(%esi),(%dx)
  40c7d1:	72 65                	jb     40c838 <.debug_info+0x791>
  40c7d3:	00 07                	add    %al,(%edi)
  40c7d5:	e9 e4 09 00 00       	jmp    40d1be <.debug_info+0x1117>
  40c7da:	90                   	nop
  40c7db:	05 73 73 65 5f       	add    $0x5f657373,%eax
  40c7e0:	6d                   	insl   (%dx),%es:(%edi)
  40c7e1:	6f                   	outsl  %ds:(%esi),(%dx)
  40c7e2:	76 65                	jbe    40c849 <.debug_info+0x7a2>
  40c7e4:	00 07                	add    %al,(%edi)
  40c7e6:	eb f3                	jmp    40c7db <.debug_info+0x734>
  40c7e8:	00 00                	add    %al,(%eax)
  40c7ea:	00 98 05 73 73 65    	add    %bl,0x65737305(%eax)
  40c7f0:	5f                   	pop    %edi
  40c7f1:	6c                   	insb   (%dx),%es:(%edi)
  40c7f2:	6f                   	outsl  %ds:(%esi),(%dx)
  40c7f3:	61                   	popa   
  40c7f4:	64 00 07             	add    %al,%fs:(%edi)
  40c7f7:	ec                   	in     (%dx),%al
  40c7f8:	cf                   	iret   
  40c7f9:	09 00                	or     %eax,(%eax)
  40c7fb:	00 9c 05 73 73 65 5f 	add    %bl,0x5f657373(%ebp,%eax,1)
  40c802:	73 74                	jae    40c878 <.debug_info+0x7d1>
  40c804:	6f                   	outsl  %ds:(%esi),(%dx)
  40c805:	72 65                	jb     40c86c <.debug_info+0x7c5>
  40c807:	00 07                	add    %al,(%edi)
  40c809:	ee                   	out    %al,(%dx)
  40c80a:	cf                   	iret   
  40c80b:	09 00                	or     %eax,(%eax)
  40c80d:	00 a8 05 6d 6d 78    	add    %ch,0x786d6d05(%eax)
  40c813:	73 73                	jae    40c888 <.debug_info+0x7e1>
  40c815:	65 5f                	gs pop %edi
  40c817:	74 6f                	je     40c888 <.debug_info+0x7e1>
  40c819:	5f                   	pop    %edi
  40c81a:	69 6e 74 65 67 65 72 	imul   $0x72656765,0x74(%esi),%ebp
  40c821:	00 07                	add    %al,(%edi)
  40c823:	f0 f3 00 00          	lock xrelease add %al,(%eax)
  40c827:	00 b4 05 6c 31 5f 63 	add    %dh,0x635f316c(%ebp,%eax,1)
  40c82e:	61                   	popa   
  40c82f:	63 68 65             	arpl   %bp,0x65(%eax)
  40c832:	5f                   	pop    %edi
  40c833:	73 69                	jae    40c89e <.debug_info+0x7f7>
  40c835:	7a 65                	jp     40c89c <.debug_info+0x7f5>
  40c837:	00 07                	add    %al,(%edi)
  40c839:	f2 f3 00 00          	repnz repz add %al,(%eax)
  40c83d:	00 b8 05 6c 32 5f    	add    %bh,0x5f326c05(%eax)
  40c843:	63 61 63             	arpl   %sp,0x63(%ecx)
  40c846:	68 65 5f 73 69       	push   $0x69735f65
  40c84b:	7a 65                	jp     40c8b2 <.debug_info+0x80b>
  40c84d:	00 07                	add    %al,(%edi)
  40c84f:	f3 f3 00 00          	repz repz add %al,(%eax)
  40c853:	00 bc 05 70 72 65 66 	add    %bh,0x66657270(%ebp,%eax,1)
  40c85a:	65 74 63             	gs je  40c8c0 <.debug_info+0x819>
  40c85d:	68 5f 62 6c 6f       	push   $0x6f6c625f
  40c862:	63 6b 00             	arpl   %bp,0x0(%ebx)
  40c865:	07                   	pop    %es
  40c866:	f4                   	hlt    
  40c867:	f3 00 00             	repz add %al,(%eax)
  40c86a:	00 c0                	add    %al,%al
  40c86c:	05 73 69 6d 75       	add    $0x756d6973,%eax
  40c871:	6c                   	insb   (%dx),%es:(%edi)
  40c872:	74 61                	je     40c8d5 <.debug_info+0x82e>
  40c874:	6e                   	outsb  %ds:(%esi),(%dx)
  40c875:	65 6f                	outsl  %gs:(%esi),(%dx)
  40c877:	75 73                	jne    40c8ec <.debug_info+0x845>
  40c879:	5f                   	pop    %edi
  40c87a:	70 72                	jo     40c8ee <.debug_info+0x847>
  40c87c:	65 66 65 74 63       	gs data16 gs je 40c8e4 <.debug_info+0x83d>
  40c881:	68 65 73 00 07       	push   $0x7007365
  40c886:	f5                   	cmc    
  40c887:	f3 00 00             	repz add %al,(%eax)
  40c88a:	00 c4                	add    %al,%ah
  40c88c:	05 62 72 61 6e       	add    $0x6e617262,%eax
  40c891:	63 68 5f             	arpl   %bp,0x5f(%eax)
  40c894:	63 6f 73             	arpl   %bp,0x73(%edi)
  40c897:	74 00                	je     40c899 <.debug_info+0x7f2>
  40c899:	07                   	pop    %es
  40c89a:	f7 f3                	div    %ebx
  40c89c:	00 00                	add    %al,(%eax)
  40c89e:	00 c8                	add    %cl,%al
  40c8a0:	05 66 61 64 64       	add    $0x64646166,%eax
  40c8a5:	00 07                	add    %al,(%edi)
  40c8a7:	f8                   	clc    
  40c8a8:	f3 00 00             	repz add %al,(%eax)
  40c8ab:	00 cc                	add    %cl,%ah
  40c8ad:	05 66 6d 75 6c       	add    $0x6c756d66,%eax
  40c8b2:	00 07                	add    %al,(%edi)
  40c8b4:	f9                   	stc    
  40c8b5:	f3 00 00             	repz add %al,(%eax)
  40c8b8:	00 d0                	add    %dl,%al
  40c8ba:	05 66 64 69 76       	add    $0x76696466,%eax
  40c8bf:	00 07                	add    %al,(%edi)
  40c8c1:	fa                   	cli    
  40c8c2:	f3 00 00             	repz add %al,(%eax)
  40c8c5:	00 d4                	add    %dl,%ah
  40c8c7:	05 66 61 62 73       	add    $0x73626166,%eax
  40c8cc:	00 07                	add    %al,(%edi)
  40c8ce:	fb                   	sti    
  40c8cf:	f3 00 00             	repz add %al,(%eax)
  40c8d2:	00 d8                	add    %bl,%al
  40c8d4:	05 66 63 68 73       	add    $0x73686366,%eax
  40c8d9:	00 07                	add    %al,(%edi)
  40c8db:	fc                   	cld    
  40c8dc:	f3 00 00             	repz add %al,(%eax)
  40c8df:	00 dc                	add    %bl,%ah
  40c8e1:	05 66 73 71 72       	add    $0x72717366,%eax
  40c8e6:	74 00                	je     40c8e8 <.debug_info+0x841>
  40c8e8:	07                   	pop    %es
  40c8e9:	fd                   	std    
  40c8ea:	f3 00 00             	repz add %al,(%eax)
  40c8ed:	00 e0                	add    %ah,%al
  40c8ef:	13 6d 65             	adc    0x65(%ebp),%ebp
  40c8f2:	6d                   	insl   (%dx),%es:(%edi)
  40c8f3:	63 70 79             	arpl   %si,0x79(%eax)
  40c8f6:	00 07                	add    %al,(%edi)
  40c8f8:	00 01                	add    %al,(%ecx)
  40c8fa:	e9 09 00 00 e4       	jmp    e440c908 <.debug_frame+0xe3ffc908>
  40c8ff:	13 6d 65             	adc    0x65(%ebp),%ebp
  40c902:	6d                   	insl   (%dx),%es:(%edi)
  40c903:	73 65                	jae    40c96a <.debug_info+0x8c3>
  40c905:	74 00                	je     40c907 <.debug_info+0x860>
  40c907:	07                   	pop    %es
  40c908:	00 01                	add    %al,(%ecx)
  40c90a:	e9 09 00 00 e8       	jmp    e840c918 <.debug_frame+0xe7ffc918>
  40c90f:	13 73 63             	adc    0x63(%ebx),%esi
  40c912:	61                   	popa   
  40c913:	6c                   	insb   (%dx),%es:(%edi)
  40c914:	61                   	popa   
  40c915:	72 5f                	jb     40c976 <.debug_info+0x8cf>
  40c917:	73 74                	jae    40c98d <.debug_info+0x8e6>
  40c919:	6d                   	insl   (%dx),%es:(%edi)
  40c91a:	74 5f                	je     40c97b <.debug_info+0x8d4>
  40c91c:	63 6f 73             	arpl   %bp,0x73(%edi)
  40c91f:	74 00                	je     40c921 <.debug_info+0x87a>
  40c921:	07                   	pop    %es
  40c922:	01 01                	add    %eax,(%ecx)
  40c924:	f3 00 00             	repz add %al,(%eax)
  40c927:	00 ec                	add    %ch,%ah
  40c929:	13 73 63             	adc    0x63(%ebx),%esi
  40c92c:	61                   	popa   
  40c92d:	6c                   	insb   (%dx),%es:(%edi)
  40c92e:	61                   	popa   
  40c92f:	72 5f                	jb     40c990 <.debug_info+0x8e9>
  40c931:	6c                   	insb   (%dx),%es:(%edi)
  40c932:	6f                   	outsl  %ds:(%esi),(%dx)
  40c933:	61                   	popa   
  40c934:	64 5f                	fs pop %edi
  40c936:	63 6f 73             	arpl   %bp,0x73(%edi)
  40c939:	74 00                	je     40c93b <.debug_info+0x894>
  40c93b:	07                   	pop    %es
  40c93c:	03 01                	add    (%ecx),%eax
  40c93e:	f3 00 00             	repz add %al,(%eax)
  40c941:	00 f0                	add    %dh,%al
  40c943:	13 73 63             	adc    0x63(%ebx),%esi
  40c946:	61                   	popa   
  40c947:	6c                   	insb   (%dx),%es:(%edi)
  40c948:	61                   	popa   
  40c949:	72 5f                	jb     40c9aa <.debug_info+0x903>
  40c94b:	73 74                	jae    40c9c1 <.debug_info+0x91a>
  40c94d:	6f                   	outsl  %ds:(%esi),(%dx)
  40c94e:	72 65                	jb     40c9b5 <.debug_info+0x90e>
  40c950:	5f                   	pop    %edi
  40c951:	63 6f 73             	arpl   %bp,0x73(%edi)
  40c954:	74 00                	je     40c956 <.debug_info+0x8af>
  40c956:	07                   	pop    %es
  40c957:	04 01                	add    $0x1,%al
  40c959:	f3 00 00             	repz add %al,(%eax)
  40c95c:	00 f4                	add    %dh,%ah
  40c95e:	13 76 65             	adc    0x65(%esi),%esi
  40c961:	63 5f 73             	arpl   %bx,0x73(%edi)
  40c964:	74 6d                	je     40c9d3 <.debug_info+0x92c>
  40c966:	74 5f                	je     40c9c7 <.debug_info+0x920>
  40c968:	63 6f 73             	arpl   %bp,0x73(%edi)
  40c96b:	74 00                	je     40c96d <.debug_info+0x8c6>
  40c96d:	07                   	pop    %es
  40c96e:	05 01 f3 00 00       	add    $0xf301,%eax
  40c973:	00 f8                	add    %bh,%al
  40c975:	13 76 65             	adc    0x65(%esi),%esi
  40c978:	63 5f 74             	arpl   %bx,0x74(%edi)
  40c97b:	6f                   	outsl  %ds:(%esi),(%dx)
  40c97c:	5f                   	pop    %edi
  40c97d:	73 63                	jae    40c9e2 <.debug_info+0x93b>
  40c97f:	61                   	popa   
  40c980:	6c                   	insb   (%dx),%es:(%edi)
  40c981:	61                   	popa   
  40c982:	72 5f                	jb     40c9e3 <.debug_info+0x93c>
  40c984:	63 6f 73             	arpl   %bp,0x73(%edi)
  40c987:	74 00                	je     40c989 <.debug_info+0x8e2>
  40c989:	07                   	pop    %es
  40c98a:	08 01                	or     %al,(%ecx)
  40c98c:	f3 00 00             	repz add %al,(%eax)
  40c98f:	00 fc                	add    %bh,%ah
  40c991:	14 73                	adc    $0x73,%al
  40c993:	63 61 6c             	arpl   %sp,0x6c(%ecx)
  40c996:	61                   	popa   
  40c997:	72 5f                	jb     40c9f8 <.debug_info+0x951>
  40c999:	74 6f                	je     40ca0a <.debug_info+0x963>
  40c99b:	5f                   	pop    %edi
  40c99c:	76 65                	jbe    40ca03 <.debug_info+0x95c>
  40c99e:	63 5f 63             	arpl   %bx,0x63(%edi)
  40c9a1:	6f                   	outsl  %ds:(%esi),(%dx)
  40c9a2:	73 74                	jae    40ca18 <.debug_info+0x971>
  40c9a4:	00 07                	add    %al,(%edi)
  40c9a6:	09 01                	or     %eax,(%ecx)
  40c9a8:	f3 00 00             	repz add %al,(%eax)
  40c9ab:	00 00                	add    %al,(%eax)
  40c9ad:	01 14 76             	add    %edx,(%esi,%esi,2)
  40c9b0:	65 63 5f 61          	arpl   %bx,%gs:0x61(%edi)
  40c9b4:	6c                   	insb   (%dx),%es:(%edi)
  40c9b5:	69 67 6e 5f 6c 6f 61 	imul   $0x616f6c5f,0x6e(%edi),%esp
  40c9bc:	64 5f                	fs pop %edi
  40c9be:	63 6f 73             	arpl   %bp,0x73(%edi)
  40c9c1:	74 00                	je     40c9c3 <.debug_info+0x91c>
  40c9c3:	07                   	pop    %es
  40c9c4:	0a 01                	or     (%ecx),%al
  40c9c6:	f3 00 00             	repz add %al,(%eax)
  40c9c9:	00 04 01             	add    %al,(%ecx,%eax,1)
  40c9cc:	14 76                	adc    $0x76,%al
  40c9ce:	65 63 5f 75          	arpl   %bx,%gs:0x75(%edi)
  40c9d2:	6e                   	outsb  %ds:(%esi),(%dx)
  40c9d3:	61                   	popa   
  40c9d4:	6c                   	insb   (%dx),%es:(%edi)
  40c9d5:	69 67 6e 5f 6c 6f 61 	imul   $0x616f6c5f,0x6e(%edi),%esp
  40c9dc:	64 5f                	fs pop %edi
  40c9de:	63 6f 73             	arpl   %bp,0x73(%edi)
  40c9e1:	74 00                	je     40c9e3 <.debug_info+0x93c>
  40c9e3:	07                   	pop    %es
  40c9e4:	0b 01                	or     (%ecx),%eax
  40c9e6:	f3 00 00             	repz add %al,(%eax)
  40c9e9:	00 08                	add    %cl,(%eax)
  40c9eb:	01 14 76             	add    %edx,(%esi,%esi,2)
  40c9ee:	65 63 5f 73          	arpl   %bx,%gs:0x73(%edi)
  40c9f2:	74 6f                	je     40ca63 <.debug_info+0x9bc>
  40c9f4:	72 65                	jb     40ca5b <.debug_info+0x9b4>
  40c9f6:	5f                   	pop    %edi
  40c9f7:	63 6f 73             	arpl   %bp,0x73(%edi)
  40c9fa:	74 00                	je     40c9fc <.debug_info+0x955>
  40c9fc:	07                   	pop    %es
  40c9fd:	0c 01                	or     $0x1,%al
  40c9ff:	f3 00 00             	repz add %al,(%eax)
  40ca02:	00 0c 01             	add    %cl,(%ecx,%eax,1)
  40ca05:	14 63                	adc    $0x63,%al
  40ca07:	6f                   	outsl  %ds:(%esi),(%dx)
  40ca08:	6e                   	outsb  %ds:(%esi),(%dx)
  40ca09:	64 5f                	fs pop %edi
  40ca0b:	74 61                	je     40ca6e <.debug_info+0x9c7>
  40ca0d:	6b 65 6e 5f          	imul   $0x5f,0x6e(%ebp),%esp
  40ca11:	62 72 61             	bound  %esi,0x61(%edx)
  40ca14:	6e                   	outsb  %ds:(%esi),(%dx)
  40ca15:	63 68 5f             	arpl   %bp,0x5f(%eax)
  40ca18:	63 6f 73             	arpl   %bp,0x73(%edi)
  40ca1b:	74 00                	je     40ca1d <.debug_info+0x976>
  40ca1d:	07                   	pop    %es
  40ca1e:	0d 01 f3 00 00       	or     $0xf301,%eax
  40ca23:	00 10                	add    %dl,(%eax)
  40ca25:	01 14 63             	add    %edx,(%ebx,%eiz,2)
  40ca28:	6f                   	outsl  %ds:(%esi),(%dx)
  40ca29:	6e                   	outsb  %ds:(%esi),(%dx)
  40ca2a:	64 5f                	fs pop %edi
  40ca2c:	6e                   	outsb  %ds:(%esi),(%dx)
  40ca2d:	6f                   	outsl  %ds:(%esi),(%dx)
  40ca2e:	74 5f                	je     40ca8f <.debug_info+0x9e8>
  40ca30:	74 61                	je     40ca93 <.debug_info+0x9ec>
  40ca32:	6b 65 6e 5f          	imul   $0x5f,0x6e(%ebp),%esp
  40ca36:	62 72 61             	bound  %esi,0x61(%edx)
  40ca39:	6e                   	outsb  %ds:(%esi),(%dx)
  40ca3a:	63 68 5f             	arpl   %bp,0x5f(%eax)
  40ca3d:	63 6f 73             	arpl   %bp,0x73(%edi)
  40ca40:	74 00                	je     40ca42 <.debug_info+0x99b>
  40ca42:	07                   	pop    %es
  40ca43:	0f 01 f3             	lmsw   %bx
  40ca46:	00 00                	add    %al,(%eax)
  40ca48:	00 14 01             	add    %dl,(%ecx,%eax,1)
  40ca4b:	00 03                	add    %al,(%ebx)
  40ca4d:	cd 05                	int    $0x5
  40ca4f:	00 00                	add    %al,(%eax)
  40ca51:	08 f3                	or     %dh,%bl
  40ca53:	00 00                	add    %al,(%eax)
  40ca55:	00 ba 09 00 00 0c    	add    %bh,0xc000009(%edx)
  40ca5b:	db 02                	fildl  (%edx)
  40ca5d:	00 00                	add    %al,(%eax)
  40ca5f:	04 00                	add    $0x0,%al
  40ca61:	03 aa 09 00 00 08    	add    0x8000009(%edx),%ebp
  40ca67:	f3 00 00             	repz add %al,(%eax)
  40ca6a:	00 cf                	add    %cl,%bh
  40ca6c:	09 00                	or     %eax,(%eax)
  40ca6e:	00 0c db             	add    %cl,(%ebx,%ebx,8)
  40ca71:	02 00                	add    (%eax),%al
  40ca73:	00 02                	add    %al,(%edx)
  40ca75:	00 03                	add    %al,(%ebx)
  40ca77:	bf 09 00 00 08       	mov    $0x8000009,%edi
  40ca7c:	f3 00 00             	repz add %al,(%eax)
  40ca7f:	00 e4                	add    %ah,%ah
  40ca81:	09 00                	or     %eax,(%eax)
  40ca83:	00 0c db             	add    %cl,(%ebx,%ebx,8)
  40ca86:	02 00                	add    (%eax),%al
  40ca88:	00 01                	add    %al,(%ecx)
  40ca8a:	00 03                	add    %al,(%ebx)
  40ca8c:	d4 09                	aam    $0x9
  40ca8e:	00 00                	add    %al,(%eax)
  40ca90:	06                   	push   %es
  40ca91:	04 7f                	add    $0x7f,%al
  40ca93:	05 00 00 0b 69       	add    $0x690b0000,%eax
  40ca98:	78 38                	js     40cad2 <.debug_info+0xa2b>
  40ca9a:	36 5f                	ss pop %edi
  40ca9c:	63 6f 73             	arpl   %bp,0x73(%edi)
  40ca9f:	74 00                	je     40caa1 <.debug_info+0x9fa>
  40caa1:	07                   	pop    %es
  40caa2:	13 01                	adc    (%ecx),%eax
  40caa4:	01 0a                	add    %ecx,(%edx)
  40caa6:	00 00                	add    %al,(%eax)
  40caa8:	06                   	push   %es
  40caa9:	04 a5                	add    $0xa5,%al
  40caab:	09 00                	or     %eax,(%eax)
  40caad:	00 0b                	add    %cl,(%ebx)
  40caaf:	69 78 38 36 5f 73 69 	imul   $0x69735f36,0x38(%eax),%edi
  40cab6:	7a 65                	jp     40cb1d <.debug_info+0xa76>
  40cab8:	5f                   	pop    %edi
  40cab9:	63 6f 73             	arpl   %bp,0x73(%edi)
  40cabc:	74 00                	je     40cabe <.debug_info+0xa17>
  40cabe:	07                   	pop    %es
  40cabf:	14 01                	adc    $0x1,%al
  40cac1:	a5                   	movsl  %ds:(%esi),%es:(%edi)
  40cac2:	09 00                	or     %eax,(%eax)
  40cac4:	00 15 69 78 38 36    	add    %dl,0x36387869
  40caca:	5f                   	pop    %edi
  40cacb:	74 75                	je     40cb42 <.debug_info+0xa9b>
  40cacd:	6e                   	outsb  %ds:(%esi),(%dx)
  40cace:	65 5f                	gs pop %edi
  40cad0:	69 6e 64 69 63 65 73 	imul   $0x73656369,0x64(%esi),%ebp
  40cad7:	00 04 f8             	add    %al,(%eax,%edi,8)
  40cada:	00 00                	add    %al,(%eax)
  40cadc:	00 07                	add    %al,(%edi)
  40cade:	6b 01 5a             	imul   $0x5a,(%ecx),%eax
  40cae1:	14 00                	adc    $0x0,%al
  40cae3:	00 11                	add    %dl,(%ecx)
  40cae5:	58                   	pop    %eax
  40cae6:	38 36                	cmp    %dh,(%esi)
  40cae8:	5f                   	pop    %edi
  40cae9:	54                   	push   %esp
  40caea:	55                   	push   %ebp
  40caeb:	4e                   	dec    %esi
  40caec:	45                   	inc    %ebp
  40caed:	5f                   	pop    %edi
  40caee:	53                   	push   %ebx
  40caef:	43                   	inc    %ebx
  40caf0:	48                   	dec    %eax
  40caf1:	45                   	inc    %ebp
  40caf2:	44                   	inc    %esp
  40caf3:	55                   	push   %ebp
  40caf4:	4c                   	dec    %esp
  40caf5:	45                   	inc    %ebp
  40caf6:	00 00                	add    %al,(%eax)
  40caf8:	11 58 38             	adc    %ebx,0x38(%eax)
  40cafb:	36 5f                	ss pop %edi
  40cafd:	54                   	push   %esp
  40cafe:	55                   	push   %ebp
  40caff:	4e                   	dec    %esi
  40cb00:	45                   	inc    %ebp
  40cb01:	5f                   	pop    %edi
  40cb02:	50                   	push   %eax
  40cb03:	41                   	inc    %ecx
  40cb04:	52                   	push   %edx
  40cb05:	54                   	push   %esp
  40cb06:	49                   	dec    %ecx
  40cb07:	41                   	inc    %ecx
  40cb08:	4c                   	dec    %esp
  40cb09:	5f                   	pop    %edi
  40cb0a:	52                   	push   %edx
  40cb0b:	45                   	inc    %ebp
  40cb0c:	47                   	inc    %edi
  40cb0d:	5f                   	pop    %edi
  40cb0e:	44                   	inc    %esp
  40cb0f:	45                   	inc    %ebp
  40cb10:	50                   	push   %eax
  40cb11:	45                   	inc    %ebp
  40cb12:	4e                   	dec    %esi
  40cb13:	44                   	inc    %esp
  40cb14:	45                   	inc    %ebp
  40cb15:	4e                   	dec    %esi
  40cb16:	43                   	inc    %ebx
  40cb17:	59                   	pop    %ecx
  40cb18:	00 01                	add    %al,(%ecx)
  40cb1a:	11 58 38             	adc    %ebx,0x38(%eax)
  40cb1d:	36 5f                	ss pop %edi
  40cb1f:	54                   	push   %esp
  40cb20:	55                   	push   %ebp
  40cb21:	4e                   	dec    %esi
  40cb22:	45                   	inc    %ebp
  40cb23:	5f                   	pop    %edi
  40cb24:	53                   	push   %ebx
  40cb25:	53                   	push   %ebx
  40cb26:	45                   	inc    %ebp
  40cb27:	5f                   	pop    %edi
  40cb28:	50                   	push   %eax
  40cb29:	41                   	inc    %ecx
  40cb2a:	52                   	push   %edx
  40cb2b:	54                   	push   %esp
  40cb2c:	49                   	dec    %ecx
  40cb2d:	41                   	inc    %ecx
  40cb2e:	4c                   	dec    %esp
  40cb2f:	5f                   	pop    %edi
  40cb30:	52                   	push   %edx
  40cb31:	45                   	inc    %ebp
  40cb32:	47                   	inc    %edi
  40cb33:	5f                   	pop    %edi
  40cb34:	44                   	inc    %esp
  40cb35:	45                   	inc    %ebp
  40cb36:	50                   	push   %eax
  40cb37:	45                   	inc    %ebp
  40cb38:	4e                   	dec    %esi
  40cb39:	44                   	inc    %esp
  40cb3a:	45                   	inc    %ebp
  40cb3b:	4e                   	dec    %esi
  40cb3c:	43                   	inc    %ebx
  40cb3d:	59                   	pop    %ecx
  40cb3e:	00 02                	add    %al,(%edx)
  40cb40:	11 58 38             	adc    %ebx,0x38(%eax)
  40cb43:	36 5f                	ss pop %edi
  40cb45:	54                   	push   %esp
  40cb46:	55                   	push   %ebp
  40cb47:	4e                   	dec    %esi
  40cb48:	45                   	inc    %ebp
  40cb49:	5f                   	pop    %edi
  40cb4a:	53                   	push   %ebx
  40cb4b:	53                   	push   %ebx
  40cb4c:	45                   	inc    %ebp
  40cb4d:	5f                   	pop    %edi
  40cb4e:	53                   	push   %ebx
  40cb4f:	50                   	push   %eax
  40cb50:	4c                   	dec    %esp
  40cb51:	49                   	dec    %ecx
  40cb52:	54                   	push   %esp
  40cb53:	5f                   	pop    %edi
  40cb54:	52                   	push   %edx
  40cb55:	45                   	inc    %ebp
  40cb56:	47                   	inc    %edi
  40cb57:	53                   	push   %ebx
  40cb58:	00 03                	add    %al,(%ebx)
  40cb5a:	11 58 38             	adc    %ebx,0x38(%eax)
  40cb5d:	36 5f                	ss pop %edi
  40cb5f:	54                   	push   %esp
  40cb60:	55                   	push   %ebp
  40cb61:	4e                   	dec    %esi
  40cb62:	45                   	inc    %ebp
  40cb63:	5f                   	pop    %edi
  40cb64:	50                   	push   %eax
  40cb65:	41                   	inc    %ecx
  40cb66:	52                   	push   %edx
  40cb67:	54                   	push   %esp
  40cb68:	49                   	dec    %ecx
  40cb69:	41                   	inc    %ecx
  40cb6a:	4c                   	dec    %esp
  40cb6b:	5f                   	pop    %edi
  40cb6c:	46                   	inc    %esi
  40cb6d:	4c                   	dec    %esp
  40cb6e:	41                   	inc    %ecx
  40cb6f:	47                   	inc    %edi
  40cb70:	5f                   	pop    %edi
  40cb71:	52                   	push   %edx
  40cb72:	45                   	inc    %ebp
  40cb73:	47                   	inc    %edi
  40cb74:	5f                   	pop    %edi
  40cb75:	53                   	push   %ebx
  40cb76:	54                   	push   %esp
  40cb77:	41                   	inc    %ecx
  40cb78:	4c                   	dec    %esp
  40cb79:	4c                   	dec    %esp
  40cb7a:	00 04 11             	add    %al,(%ecx,%edx,1)
  40cb7d:	58                   	pop    %eax
  40cb7e:	38 36                	cmp    %dh,(%esi)
  40cb80:	5f                   	pop    %edi
  40cb81:	54                   	push   %esp
  40cb82:	55                   	push   %ebp
  40cb83:	4e                   	dec    %esi
  40cb84:	45                   	inc    %ebp
  40cb85:	5f                   	pop    %edi
  40cb86:	4d                   	dec    %ebp
  40cb87:	4f                   	dec    %edi
  40cb88:	56                   	push   %esi
  40cb89:	58                   	pop    %eax
  40cb8a:	00 05 11 58 38 36    	add    %al,0x36385811
  40cb90:	5f                   	pop    %edi
  40cb91:	54                   	push   %esp
  40cb92:	55                   	push   %ebp
  40cb93:	4e                   	dec    %esi
  40cb94:	45                   	inc    %ebp
  40cb95:	5f                   	pop    %edi
  40cb96:	4d                   	dec    %ebp
  40cb97:	45                   	inc    %ebp
  40cb98:	4d                   	dec    %ebp
  40cb99:	4f                   	dec    %edi
  40cb9a:	52                   	push   %edx
  40cb9b:	59                   	pop    %ecx
  40cb9c:	5f                   	pop    %edi
  40cb9d:	4d                   	dec    %ebp
  40cb9e:	49                   	dec    %ecx
  40cb9f:	53                   	push   %ebx
  40cba0:	4d                   	dec    %ebp
  40cba1:	41                   	inc    %ecx
  40cba2:	54                   	push   %esp
  40cba3:	43                   	inc    %ebx
  40cba4:	48                   	dec    %eax
  40cba5:	5f                   	pop    %edi
  40cba6:	53                   	push   %ebx
  40cba7:	54                   	push   %esp
  40cba8:	41                   	inc    %ecx
  40cba9:	4c                   	dec    %esp
  40cbaa:	4c                   	dec    %esp
  40cbab:	00 06                	add    %al,(%esi)
  40cbad:	11 58 38             	adc    %ebx,0x38(%eax)
  40cbb0:	36 5f                	ss pop %edi
  40cbb2:	54                   	push   %esp
  40cbb3:	55                   	push   %ebp
  40cbb4:	4e                   	dec    %esi
  40cbb5:	45                   	inc    %ebp
  40cbb6:	5f                   	pop    %edi
  40cbb7:	46                   	inc    %esi
  40cbb8:	55                   	push   %ebp
  40cbb9:	53                   	push   %ebx
  40cbba:	45                   	inc    %ebp
  40cbbb:	5f                   	pop    %edi
  40cbbc:	43                   	inc    %ebx
  40cbbd:	4d                   	dec    %ebp
  40cbbe:	50                   	push   %eax
  40cbbf:	5f                   	pop    %edi
  40cbc0:	41                   	inc    %ecx
  40cbc1:	4e                   	dec    %esi
  40cbc2:	44                   	inc    %esp
  40cbc3:	5f                   	pop    %edi
  40cbc4:	42                   	inc    %edx
  40cbc5:	52                   	push   %edx
  40cbc6:	41                   	inc    %ecx
  40cbc7:	4e                   	dec    %esi
  40cbc8:	43                   	inc    %ebx
  40cbc9:	48                   	dec    %eax
  40cbca:	5f                   	pop    %edi
  40cbcb:	33 32                	xor    (%edx),%esi
  40cbcd:	00 07                	add    %al,(%edi)
  40cbcf:	11 58 38             	adc    %ebx,0x38(%eax)
  40cbd2:	36 5f                	ss pop %edi
  40cbd4:	54                   	push   %esp
  40cbd5:	55                   	push   %ebp
  40cbd6:	4e                   	dec    %esi
  40cbd7:	45                   	inc    %ebp
  40cbd8:	5f                   	pop    %edi
  40cbd9:	46                   	inc    %esi
  40cbda:	55                   	push   %ebp
  40cbdb:	53                   	push   %ebx
  40cbdc:	45                   	inc    %ebp
  40cbdd:	5f                   	pop    %edi
  40cbde:	43                   	inc    %ebx
  40cbdf:	4d                   	dec    %ebp
  40cbe0:	50                   	push   %eax
  40cbe1:	5f                   	pop    %edi
  40cbe2:	41                   	inc    %ecx
  40cbe3:	4e                   	dec    %esi
  40cbe4:	44                   	inc    %esp
  40cbe5:	5f                   	pop    %edi
  40cbe6:	42                   	inc    %edx
  40cbe7:	52                   	push   %edx
  40cbe8:	41                   	inc    %ecx
  40cbe9:	4e                   	dec    %esi
  40cbea:	43                   	inc    %ebx
  40cbeb:	48                   	dec    %eax
  40cbec:	5f                   	pop    %edi
  40cbed:	36 34 00             	ss xor $0x0,%al
  40cbf0:	08 11                	or     %dl,(%ecx)
  40cbf2:	58                   	pop    %eax
  40cbf3:	38 36                	cmp    %dh,(%esi)
  40cbf5:	5f                   	pop    %edi
  40cbf6:	54                   	push   %esp
  40cbf7:	55                   	push   %ebp
  40cbf8:	4e                   	dec    %esi
  40cbf9:	45                   	inc    %ebp
  40cbfa:	5f                   	pop    %edi
  40cbfb:	46                   	inc    %esi
  40cbfc:	55                   	push   %ebp
  40cbfd:	53                   	push   %ebx
  40cbfe:	45                   	inc    %ebp
  40cbff:	5f                   	pop    %edi
  40cc00:	43                   	inc    %ebx
  40cc01:	4d                   	dec    %ebp
  40cc02:	50                   	push   %eax
  40cc03:	5f                   	pop    %edi
  40cc04:	41                   	inc    %ecx
  40cc05:	4e                   	dec    %esi
  40cc06:	44                   	inc    %esp
  40cc07:	5f                   	pop    %edi
  40cc08:	42                   	inc    %edx
  40cc09:	52                   	push   %edx
  40cc0a:	41                   	inc    %ecx
  40cc0b:	4e                   	dec    %esi
  40cc0c:	43                   	inc    %ebx
  40cc0d:	48                   	dec    %eax
  40cc0e:	5f                   	pop    %edi
  40cc0f:	53                   	push   %ebx
  40cc10:	4f                   	dec    %edi
  40cc11:	46                   	inc    %esi
  40cc12:	4c                   	dec    %esp
  40cc13:	41                   	inc    %ecx
  40cc14:	47                   	inc    %edi
  40cc15:	53                   	push   %ebx
  40cc16:	00 09                	add    %cl,(%ecx)
  40cc18:	11 58 38             	adc    %ebx,0x38(%eax)
  40cc1b:	36 5f                	ss pop %edi
  40cc1d:	54                   	push   %esp
  40cc1e:	55                   	push   %ebp
  40cc1f:	4e                   	dec    %esi
  40cc20:	45                   	inc    %ebp
  40cc21:	5f                   	pop    %edi
  40cc22:	46                   	inc    %esi
  40cc23:	55                   	push   %ebp
  40cc24:	53                   	push   %ebx
  40cc25:	45                   	inc    %ebp
  40cc26:	5f                   	pop    %edi
  40cc27:	41                   	inc    %ecx
  40cc28:	4c                   	dec    %esp
  40cc29:	55                   	push   %ebp
  40cc2a:	5f                   	pop    %edi
  40cc2b:	41                   	inc    %ecx
  40cc2c:	4e                   	dec    %esi
  40cc2d:	44                   	inc    %esp
  40cc2e:	5f                   	pop    %edi
  40cc2f:	42                   	inc    %edx
  40cc30:	52                   	push   %edx
  40cc31:	41                   	inc    %ecx
  40cc32:	4e                   	dec    %esi
  40cc33:	43                   	inc    %ebx
  40cc34:	48                   	dec    %eax
  40cc35:	00 0a                	add    %cl,(%edx)
  40cc37:	11 58 38             	adc    %ebx,0x38(%eax)
  40cc3a:	36 5f                	ss pop %edi
  40cc3c:	54                   	push   %esp
  40cc3d:	55                   	push   %ebp
  40cc3e:	4e                   	dec    %esi
  40cc3f:	45                   	inc    %ebp
  40cc40:	5f                   	pop    %edi
  40cc41:	52                   	push   %edx
  40cc42:	45                   	inc    %ebp
  40cc43:	41                   	inc    %ecx
  40cc44:	53                   	push   %ebx
  40cc45:	53                   	push   %ebx
  40cc46:	4f                   	dec    %edi
  40cc47:	43                   	inc    %ebx
  40cc48:	5f                   	pop    %edi
  40cc49:	49                   	dec    %ecx
  40cc4a:	4e                   	dec    %esi
  40cc4b:	54                   	push   %esp
  40cc4c:	5f                   	pop    %edi
  40cc4d:	54                   	push   %esp
  40cc4e:	4f                   	dec    %edi
  40cc4f:	5f                   	pop    %edi
  40cc50:	50                   	push   %eax
  40cc51:	41                   	inc    %ecx
  40cc52:	52                   	push   %edx
  40cc53:	41                   	inc    %ecx
  40cc54:	4c                   	dec    %esp
  40cc55:	4c                   	dec    %esp
  40cc56:	45                   	inc    %ebp
  40cc57:	4c                   	dec    %esp
  40cc58:	00 0b                	add    %cl,(%ebx)
  40cc5a:	11 58 38             	adc    %ebx,0x38(%eax)
  40cc5d:	36 5f                	ss pop %edi
  40cc5f:	54                   	push   %esp
  40cc60:	55                   	push   %ebp
  40cc61:	4e                   	dec    %esi
  40cc62:	45                   	inc    %ebp
  40cc63:	5f                   	pop    %edi
  40cc64:	52                   	push   %edx
  40cc65:	45                   	inc    %ebp
  40cc66:	41                   	inc    %ecx
  40cc67:	53                   	push   %ebx
  40cc68:	53                   	push   %ebx
  40cc69:	4f                   	dec    %edi
  40cc6a:	43                   	inc    %ebx
  40cc6b:	5f                   	pop    %edi
  40cc6c:	46                   	inc    %esi
  40cc6d:	50                   	push   %eax
  40cc6e:	5f                   	pop    %edi
  40cc6f:	54                   	push   %esp
  40cc70:	4f                   	dec    %edi
  40cc71:	5f                   	pop    %edi
  40cc72:	50                   	push   %eax
  40cc73:	41                   	inc    %ecx
  40cc74:	52                   	push   %edx
  40cc75:	41                   	inc    %ecx
  40cc76:	4c                   	dec    %esp
  40cc77:	4c                   	dec    %esp
  40cc78:	45                   	inc    %ebp
  40cc79:	4c                   	dec    %esp
  40cc7a:	00 0c 11             	add    %cl,(%ecx,%edx,1)
  40cc7d:	58                   	pop    %eax
  40cc7e:	38 36                	cmp    %dh,(%esi)
  40cc80:	5f                   	pop    %edi
  40cc81:	54                   	push   %esp
  40cc82:	55                   	push   %ebp
  40cc83:	4e                   	dec    %esi
  40cc84:	45                   	inc    %ebp
  40cc85:	5f                   	pop    %edi
  40cc86:	41                   	inc    %ecx
  40cc87:	43                   	inc    %ebx
  40cc88:	43                   	inc    %ebx
  40cc89:	55                   	push   %ebp
  40cc8a:	4d                   	dec    %ebp
  40cc8b:	55                   	push   %ebp
  40cc8c:	4c                   	dec    %esp
  40cc8d:	41                   	inc    %ecx
  40cc8e:	54                   	push   %esp
  40cc8f:	45                   	inc    %ebp
  40cc90:	5f                   	pop    %edi
  40cc91:	4f                   	dec    %edi
  40cc92:	55                   	push   %ebp
  40cc93:	54                   	push   %esp
  40cc94:	47                   	inc    %edi
  40cc95:	4f                   	dec    %edi
  40cc96:	49                   	dec    %ecx
  40cc97:	4e                   	dec    %esi
  40cc98:	47                   	inc    %edi
  40cc99:	5f                   	pop    %edi
  40cc9a:	41                   	inc    %ecx
  40cc9b:	52                   	push   %edx
  40cc9c:	47                   	inc    %edi
  40cc9d:	53                   	push   %ebx
  40cc9e:	00 0d 11 58 38 36    	add    %cl,0x36385811
  40cca4:	5f                   	pop    %edi
  40cca5:	54                   	push   %esp
  40cca6:	55                   	push   %ebp
  40cca7:	4e                   	dec    %esi
  40cca8:	45                   	inc    %ebp
  40cca9:	5f                   	pop    %edi
  40ccaa:	50                   	push   %eax
  40ccab:	52                   	push   %edx
  40ccac:	4f                   	dec    %edi
  40ccad:	4c                   	dec    %esp
  40ccae:	4f                   	dec    %edi
  40ccaf:	47                   	inc    %edi
  40ccb0:	55                   	push   %ebp
  40ccb1:	45                   	inc    %ebp
  40ccb2:	5f                   	pop    %edi
  40ccb3:	55                   	push   %ebp
  40ccb4:	53                   	push   %ebx
  40ccb5:	49                   	dec    %ecx
  40ccb6:	4e                   	dec    %esi
  40ccb7:	47                   	inc    %edi
  40ccb8:	5f                   	pop    %edi
  40ccb9:	4d                   	dec    %ebp
  40ccba:	4f                   	dec    %edi
  40ccbb:	56                   	push   %esi
  40ccbc:	45                   	inc    %ebp
  40ccbd:	00 0e                	add    %cl,(%esi)
  40ccbf:	11 58 38             	adc    %ebx,0x38(%eax)
  40ccc2:	36 5f                	ss pop %edi
  40ccc4:	54                   	push   %esp
  40ccc5:	55                   	push   %ebp
  40ccc6:	4e                   	dec    %esi
  40ccc7:	45                   	inc    %ebp
  40ccc8:	5f                   	pop    %edi
  40ccc9:	45                   	inc    %ebp
  40ccca:	50                   	push   %eax
  40cccb:	49                   	dec    %ecx
  40cccc:	4c                   	dec    %esp
  40cccd:	4f                   	dec    %edi
  40ccce:	47                   	inc    %edi
  40cccf:	55                   	push   %ebp
  40ccd0:	45                   	inc    %ebp
  40ccd1:	5f                   	pop    %edi
  40ccd2:	55                   	push   %ebp
  40ccd3:	53                   	push   %ebx
  40ccd4:	49                   	dec    %ecx
  40ccd5:	4e                   	dec    %esi
  40ccd6:	47                   	inc    %edi
  40ccd7:	5f                   	pop    %edi
  40ccd8:	4d                   	dec    %ebp
  40ccd9:	4f                   	dec    %edi
  40ccda:	56                   	push   %esi
  40ccdb:	45                   	inc    %ebp
  40ccdc:	00 0f                	add    %cl,(%edi)
  40ccde:	11 58 38             	adc    %ebx,0x38(%eax)
  40cce1:	36 5f                	ss pop %edi
  40cce3:	54                   	push   %esp
  40cce4:	55                   	push   %ebp
  40cce5:	4e                   	dec    %esi
  40cce6:	45                   	inc    %ebp
  40cce7:	5f                   	pop    %edi
  40cce8:	55                   	push   %ebp
  40cce9:	53                   	push   %ebx
  40ccea:	45                   	inc    %ebp
  40cceb:	5f                   	pop    %edi
  40ccec:	4c                   	dec    %esp
  40cced:	45                   	inc    %ebp
  40ccee:	41                   	inc    %ecx
  40ccef:	56                   	push   %esi
  40ccf0:	45                   	inc    %ebp
  40ccf1:	00 10                	add    %dl,(%eax)
  40ccf3:	11 58 38             	adc    %ebx,0x38(%eax)
  40ccf6:	36 5f                	ss pop %edi
  40ccf8:	54                   	push   %esp
  40ccf9:	55                   	push   %ebp
  40ccfa:	4e                   	dec    %esi
  40ccfb:	45                   	inc    %ebp
  40ccfc:	5f                   	pop    %edi
  40ccfd:	50                   	push   %eax
  40ccfe:	55                   	push   %ebp
  40ccff:	53                   	push   %ebx
  40cd00:	48                   	dec    %eax
  40cd01:	5f                   	pop    %edi
  40cd02:	4d                   	dec    %ebp
  40cd03:	45                   	inc    %ebp
  40cd04:	4d                   	dec    %ebp
  40cd05:	4f                   	dec    %edi
  40cd06:	52                   	push   %edx
  40cd07:	59                   	pop    %ecx
  40cd08:	00 11                	add    %dl,(%ecx)
  40cd0a:	11 58 38             	adc    %ebx,0x38(%eax)
  40cd0d:	36 5f                	ss pop %edi
  40cd0f:	54                   	push   %esp
  40cd10:	55                   	push   %ebp
  40cd11:	4e                   	dec    %esi
  40cd12:	45                   	inc    %ebp
  40cd13:	5f                   	pop    %edi
  40cd14:	53                   	push   %ebx
  40cd15:	49                   	dec    %ecx
  40cd16:	4e                   	dec    %esi
  40cd17:	47                   	inc    %edi
  40cd18:	4c                   	dec    %esp
  40cd19:	45                   	inc    %ebp
  40cd1a:	5f                   	pop    %edi
  40cd1b:	50                   	push   %eax
  40cd1c:	55                   	push   %ebp
  40cd1d:	53                   	push   %ebx
  40cd1e:	48                   	dec    %eax
  40cd1f:	00 12                	add    %dl,(%edx)
  40cd21:	11 58 38             	adc    %ebx,0x38(%eax)
  40cd24:	36 5f                	ss pop %edi
  40cd26:	54                   	push   %esp
  40cd27:	55                   	push   %ebp
  40cd28:	4e                   	dec    %esi
  40cd29:	45                   	inc    %ebp
  40cd2a:	5f                   	pop    %edi
  40cd2b:	44                   	inc    %esp
  40cd2c:	4f                   	dec    %edi
  40cd2d:	55                   	push   %ebp
  40cd2e:	42                   	inc    %edx
  40cd2f:	4c                   	dec    %esp
  40cd30:	45                   	inc    %ebp
  40cd31:	5f                   	pop    %edi
  40cd32:	50                   	push   %eax
  40cd33:	55                   	push   %ebp
  40cd34:	53                   	push   %ebx
  40cd35:	48                   	dec    %eax
  40cd36:	00 13                	add    %dl,(%ebx)
  40cd38:	11 58 38             	adc    %ebx,0x38(%eax)
  40cd3b:	36 5f                	ss pop %edi
  40cd3d:	54                   	push   %esp
  40cd3e:	55                   	push   %ebp
  40cd3f:	4e                   	dec    %esi
  40cd40:	45                   	inc    %ebp
  40cd41:	5f                   	pop    %edi
  40cd42:	53                   	push   %ebx
  40cd43:	49                   	dec    %ecx
  40cd44:	4e                   	dec    %esi
  40cd45:	47                   	inc    %edi
  40cd46:	4c                   	dec    %esp
  40cd47:	45                   	inc    %ebp
  40cd48:	5f                   	pop    %edi
  40cd49:	50                   	push   %eax
  40cd4a:	4f                   	dec    %edi
  40cd4b:	50                   	push   %eax
  40cd4c:	00 14 11             	add    %dl,(%ecx,%edx,1)
  40cd4f:	58                   	pop    %eax
  40cd50:	38 36                	cmp    %dh,(%esi)
  40cd52:	5f                   	pop    %edi
  40cd53:	54                   	push   %esp
  40cd54:	55                   	push   %ebp
  40cd55:	4e                   	dec    %esi
  40cd56:	45                   	inc    %ebp
  40cd57:	5f                   	pop    %edi
  40cd58:	44                   	inc    %esp
  40cd59:	4f                   	dec    %edi
  40cd5a:	55                   	push   %ebp
  40cd5b:	42                   	inc    %edx
  40cd5c:	4c                   	dec    %esp
  40cd5d:	45                   	inc    %ebp
  40cd5e:	5f                   	pop    %edi
  40cd5f:	50                   	push   %eax
  40cd60:	4f                   	dec    %edi
  40cd61:	50                   	push   %eax
  40cd62:	00 15 11 58 38 36    	add    %dl,0x36385811
  40cd68:	5f                   	pop    %edi
  40cd69:	54                   	push   %esp
  40cd6a:	55                   	push   %ebp
  40cd6b:	4e                   	dec    %esi
  40cd6c:	45                   	inc    %ebp
  40cd6d:	5f                   	pop    %edi
  40cd6e:	50                   	push   %eax
  40cd6f:	41                   	inc    %ecx
  40cd70:	44                   	inc    %esp
  40cd71:	5f                   	pop    %edi
  40cd72:	53                   	push   %ebx
  40cd73:	48                   	dec    %eax
  40cd74:	4f                   	dec    %edi
  40cd75:	52                   	push   %edx
  40cd76:	54                   	push   %esp
  40cd77:	5f                   	pop    %edi
  40cd78:	46                   	inc    %esi
  40cd79:	55                   	push   %ebp
  40cd7a:	4e                   	dec    %esi
  40cd7b:	43                   	inc    %ebx
  40cd7c:	54                   	push   %esp
  40cd7d:	49                   	dec    %ecx
  40cd7e:	4f                   	dec    %edi
  40cd7f:	4e                   	dec    %esi
  40cd80:	00 16                	add    %dl,(%esi)
  40cd82:	11 58 38             	adc    %ebx,0x38(%eax)
  40cd85:	36 5f                	ss pop %edi
  40cd87:	54                   	push   %esp
  40cd88:	55                   	push   %ebp
  40cd89:	4e                   	dec    %esi
  40cd8a:	45                   	inc    %ebp
  40cd8b:	5f                   	pop    %edi
  40cd8c:	50                   	push   %eax
  40cd8d:	41                   	inc    %ecx
  40cd8e:	44                   	inc    %esp
  40cd8f:	5f                   	pop    %edi
  40cd90:	52                   	push   %edx
  40cd91:	45                   	inc    %ebp
  40cd92:	54                   	push   %esp
  40cd93:	55                   	push   %ebp
  40cd94:	52                   	push   %edx
  40cd95:	4e                   	dec    %esi
  40cd96:	53                   	push   %ebx
  40cd97:	00 17                	add    %dl,(%edi)
  40cd99:	11 58 38             	adc    %ebx,0x38(%eax)
  40cd9c:	36 5f                	ss pop %edi
  40cd9e:	54                   	push   %esp
  40cd9f:	55                   	push   %ebp
  40cda0:	4e                   	dec    %esi
  40cda1:	45                   	inc    %ebp
  40cda2:	5f                   	pop    %edi
  40cda3:	46                   	inc    %esi
  40cda4:	4f                   	dec    %edi
  40cda5:	55                   	push   %ebp
  40cda6:	52                   	push   %edx
  40cda7:	5f                   	pop    %edi
  40cda8:	4a                   	dec    %edx
  40cda9:	55                   	push   %ebp
  40cdaa:	4d                   	dec    %ebp
  40cdab:	50                   	push   %eax
  40cdac:	5f                   	pop    %edi
  40cdad:	4c                   	dec    %esp
  40cdae:	49                   	dec    %ecx
  40cdaf:	4d                   	dec    %ebp
  40cdb0:	49                   	dec    %ecx
  40cdb1:	54                   	push   %esp
  40cdb2:	00 18                	add    %bl,(%eax)
  40cdb4:	11 58 38             	adc    %ebx,0x38(%eax)
  40cdb7:	36 5f                	ss pop %edi
  40cdb9:	54                   	push   %esp
  40cdba:	55                   	push   %ebp
  40cdbb:	4e                   	dec    %esi
  40cdbc:	45                   	inc    %ebp
  40cdbd:	5f                   	pop    %edi
  40cdbe:	53                   	push   %ebx
  40cdbf:	4f                   	dec    %edi
  40cdc0:	46                   	inc    %esi
  40cdc1:	54                   	push   %esp
  40cdc2:	57                   	push   %edi
  40cdc3:	41                   	inc    %ecx
  40cdc4:	52                   	push   %edx
  40cdc5:	45                   	inc    %ebp
  40cdc6:	5f                   	pop    %edi
  40cdc7:	50                   	push   %eax
  40cdc8:	52                   	push   %edx
  40cdc9:	45                   	inc    %ebp
  40cdca:	46                   	inc    %esi
  40cdcb:	45                   	inc    %ebp
  40cdcc:	54                   	push   %esp
  40cdcd:	43                   	inc    %ebx
  40cdce:	48                   	dec    %eax
  40cdcf:	49                   	dec    %ecx
  40cdd0:	4e                   	dec    %esi
  40cdd1:	47                   	inc    %edi
  40cdd2:	5f                   	pop    %edi
  40cdd3:	42                   	inc    %edx
  40cdd4:	45                   	inc    %ebp
  40cdd5:	4e                   	dec    %esi
  40cdd6:	45                   	inc    %ebp
  40cdd7:	46                   	inc    %esi
  40cdd8:	49                   	dec    %ecx
  40cdd9:	43                   	inc    %ebx
  40cdda:	49                   	dec    %ecx
  40cddb:	41                   	inc    %ecx
  40cddc:	4c                   	dec    %esp
  40cddd:	00 19                	add    %bl,(%ecx)
  40cddf:	11 58 38             	adc    %ebx,0x38(%eax)
  40cde2:	36 5f                	ss pop %edi
  40cde4:	54                   	push   %esp
  40cde5:	55                   	push   %ebp
  40cde6:	4e                   	dec    %esi
  40cde7:	45                   	inc    %ebp
  40cde8:	5f                   	pop    %edi
  40cde9:	4c                   	dec    %esp
  40cdea:	43                   	inc    %ebx
  40cdeb:	50                   	push   %eax
  40cdec:	5f                   	pop    %edi
  40cded:	53                   	push   %ebx
  40cdee:	54                   	push   %esp
  40cdef:	41                   	inc    %ecx
  40cdf0:	4c                   	dec    %esp
  40cdf1:	4c                   	dec    %esp
  40cdf2:	00 1a                	add    %bl,(%edx)
  40cdf4:	11 58 38             	adc    %ebx,0x38(%eax)
  40cdf7:	36 5f                	ss pop %edi
  40cdf9:	54                   	push   %esp
  40cdfa:	55                   	push   %ebp
  40cdfb:	4e                   	dec    %esi
  40cdfc:	45                   	inc    %ebp
  40cdfd:	5f                   	pop    %edi
  40cdfe:	52                   	push   %edx
  40cdff:	45                   	inc    %ebp
  40ce00:	41                   	inc    %ecx
  40ce01:	44                   	inc    %esp
  40ce02:	5f                   	pop    %edi
  40ce03:	4d                   	dec    %ebp
  40ce04:	4f                   	dec    %edi
  40ce05:	44                   	inc    %esp
  40ce06:	49                   	dec    %ecx
  40ce07:	46                   	inc    %esi
  40ce08:	59                   	pop    %ecx
  40ce09:	00 1b                	add    %bl,(%ebx)
  40ce0b:	11 58 38             	adc    %ebx,0x38(%eax)
  40ce0e:	36 5f                	ss pop %edi
  40ce10:	54                   	push   %esp
  40ce11:	55                   	push   %ebp
  40ce12:	4e                   	dec    %esi
  40ce13:	45                   	inc    %ebp
  40ce14:	5f                   	pop    %edi
  40ce15:	55                   	push   %ebp
  40ce16:	53                   	push   %ebx
  40ce17:	45                   	inc    %ebp
  40ce18:	5f                   	pop    %edi
  40ce19:	49                   	dec    %ecx
  40ce1a:	4e                   	dec    %esi
  40ce1b:	43                   	inc    %ebx
  40ce1c:	44                   	inc    %esp
  40ce1d:	45                   	inc    %ebp
  40ce1e:	43                   	inc    %ebx
  40ce1f:	00 1c 11             	add    %bl,(%ecx,%edx,1)
  40ce22:	58                   	pop    %eax
  40ce23:	38 36                	cmp    %dh,(%esi)
  40ce25:	5f                   	pop    %edi
  40ce26:	54                   	push   %esp
  40ce27:	55                   	push   %ebp
  40ce28:	4e                   	dec    %esi
  40ce29:	45                   	inc    %ebp
  40ce2a:	5f                   	pop    %edi
  40ce2b:	49                   	dec    %ecx
  40ce2c:	4e                   	dec    %esi
  40ce2d:	54                   	push   %esp
  40ce2e:	45                   	inc    %ebp
  40ce2f:	47                   	inc    %edi
  40ce30:	45                   	inc    %ebp
  40ce31:	52                   	push   %edx
  40ce32:	5f                   	pop    %edi
  40ce33:	44                   	inc    %esp
  40ce34:	46                   	inc    %esi
  40ce35:	4d                   	dec    %ebp
  40ce36:	4f                   	dec    %edi
  40ce37:	44                   	inc    %esp
  40ce38:	45                   	inc    %ebp
  40ce39:	5f                   	pop    %edi
  40ce3a:	4d                   	dec    %ebp
  40ce3b:	4f                   	dec    %edi
  40ce3c:	56                   	push   %esi
  40ce3d:	45                   	inc    %ebp
  40ce3e:	53                   	push   %ebx
  40ce3f:	00 1d 11 58 38 36    	add    %bl,0x36385811
  40ce45:	5f                   	pop    %edi
  40ce46:	54                   	push   %esp
  40ce47:	55                   	push   %ebp
  40ce48:	4e                   	dec    %esi
  40ce49:	45                   	inc    %ebp
  40ce4a:	5f                   	pop    %edi
  40ce4b:	4f                   	dec    %edi
  40ce4c:	50                   	push   %eax
  40ce4d:	54                   	push   %esp
  40ce4e:	5f                   	pop    %edi
  40ce4f:	41                   	inc    %ecx
  40ce50:	47                   	inc    %edi
  40ce51:	55                   	push   %ebp
  40ce52:	00 1e                	add    %bl,(%esi)
  40ce54:	11 58 38             	adc    %ebx,0x38(%eax)
  40ce57:	36 5f                	ss pop %edi
  40ce59:	54                   	push   %esp
  40ce5a:	55                   	push   %ebp
  40ce5b:	4e                   	dec    %esi
  40ce5c:	45                   	inc    %ebp
  40ce5d:	5f                   	pop    %edi
  40ce5e:	41                   	inc    %ecx
  40ce5f:	56                   	push   %esi
  40ce60:	4f                   	dec    %edi
  40ce61:	49                   	dec    %ecx
  40ce62:	44                   	inc    %esp
  40ce63:	5f                   	pop    %edi
  40ce64:	4c                   	dec    %esp
  40ce65:	45                   	inc    %ebp
  40ce66:	41                   	inc    %ecx
  40ce67:	5f                   	pop    %edi
  40ce68:	46                   	inc    %esi
  40ce69:	4f                   	dec    %edi
  40ce6a:	52                   	push   %edx
  40ce6b:	5f                   	pop    %edi
  40ce6c:	41                   	inc    %ecx
  40ce6d:	44                   	inc    %esp
  40ce6e:	44                   	inc    %esp
  40ce6f:	52                   	push   %edx
  40ce70:	00 1f                	add    %bl,(%edi)
  40ce72:	11 58 38             	adc    %ebx,0x38(%eax)
  40ce75:	36 5f                	ss pop %edi
  40ce77:	54                   	push   %esp
  40ce78:	55                   	push   %ebp
  40ce79:	4e                   	dec    %esi
  40ce7a:	45                   	inc    %ebp
  40ce7b:	5f                   	pop    %edi
  40ce7c:	53                   	push   %ebx
  40ce7d:	4c                   	dec    %esp
  40ce7e:	4f                   	dec    %edi
  40ce7f:	57                   	push   %edi
  40ce80:	5f                   	pop    %edi
  40ce81:	49                   	dec    %ecx
  40ce82:	4d                   	dec    %ebp
  40ce83:	55                   	push   %ebp
  40ce84:	4c                   	dec    %esp
  40ce85:	5f                   	pop    %edi
  40ce86:	49                   	dec    %ecx
  40ce87:	4d                   	dec    %ebp
  40ce88:	4d                   	dec    %ebp
  40ce89:	33 32                	xor    (%edx),%esi
  40ce8b:	5f                   	pop    %edi
  40ce8c:	4d                   	dec    %ebp
  40ce8d:	45                   	inc    %ebp
  40ce8e:	4d                   	dec    %ebp
  40ce8f:	00 20                	add    %ah,(%eax)
  40ce91:	11 58 38             	adc    %ebx,0x38(%eax)
  40ce94:	36 5f                	ss pop %edi
  40ce96:	54                   	push   %esp
  40ce97:	55                   	push   %ebp
  40ce98:	4e                   	dec    %esi
  40ce99:	45                   	inc    %ebp
  40ce9a:	5f                   	pop    %edi
  40ce9b:	53                   	push   %ebx
  40ce9c:	4c                   	dec    %esp
  40ce9d:	4f                   	dec    %edi
  40ce9e:	57                   	push   %edi
  40ce9f:	5f                   	pop    %edi
  40cea0:	49                   	dec    %ecx
  40cea1:	4d                   	dec    %ebp
  40cea2:	55                   	push   %ebp
  40cea3:	4c                   	dec    %esp
  40cea4:	5f                   	pop    %edi
  40cea5:	49                   	dec    %ecx
  40cea6:	4d                   	dec    %ebp
  40cea7:	4d                   	dec    %ebp
  40cea8:	38 00                	cmp    %al,(%eax)
  40ceaa:	21 11                	and    %edx,(%ecx)
  40ceac:	58                   	pop    %eax
  40cead:	38 36                	cmp    %dh,(%esi)
  40ceaf:	5f                   	pop    %edi
  40ceb0:	54                   	push   %esp
  40ceb1:	55                   	push   %ebp
  40ceb2:	4e                   	dec    %esi
  40ceb3:	45                   	inc    %ebp
  40ceb4:	5f                   	pop    %edi
  40ceb5:	41                   	inc    %ecx
  40ceb6:	56                   	push   %esi
  40ceb7:	4f                   	dec    %edi
  40ceb8:	49                   	dec    %ecx
  40ceb9:	44                   	inc    %esp
  40ceba:	5f                   	pop    %edi
  40cebb:	4d                   	dec    %ebp
  40cebc:	45                   	inc    %ebp
  40cebd:	4d                   	dec    %ebp
  40cebe:	5f                   	pop    %edi
  40cebf:	4f                   	dec    %edi
  40cec0:	50                   	push   %eax
  40cec1:	4e                   	dec    %esi
  40cec2:	44                   	inc    %esp
  40cec3:	5f                   	pop    %edi
  40cec4:	46                   	inc    %esi
  40cec5:	4f                   	dec    %edi
  40cec6:	52                   	push   %edx
  40cec7:	5f                   	pop    %edi
  40cec8:	43                   	inc    %ebx
  40cec9:	4d                   	dec    %ebp
  40ceca:	4f                   	dec    %edi
  40cecb:	56                   	push   %esi
  40cecc:	45                   	inc    %ebp
  40cecd:	00 22                	add    %ah,(%edx)
  40cecf:	11 58 38             	adc    %ebx,0x38(%eax)
  40ced2:	36 5f                	ss pop %edi
  40ced4:	54                   	push   %esp
  40ced5:	55                   	push   %ebp
  40ced6:	4e                   	dec    %esi
  40ced7:	45                   	inc    %ebp
  40ced8:	5f                   	pop    %edi
  40ced9:	53                   	push   %ebx
  40ceda:	49                   	dec    %ecx
  40cedb:	4e                   	dec    %esi
  40cedc:	47                   	inc    %edi
  40cedd:	4c                   	dec    %esp
  40cede:	45                   	inc    %ebp
  40cedf:	5f                   	pop    %edi
  40cee0:	53                   	push   %ebx
  40cee1:	54                   	push   %esp
  40cee2:	52                   	push   %edx
  40cee3:	49                   	dec    %ecx
  40cee4:	4e                   	dec    %esi
  40cee5:	47                   	inc    %edi
  40cee6:	4f                   	dec    %edi
  40cee7:	50                   	push   %eax
  40cee8:	00 23                	add    %ah,(%ebx)
  40ceea:	11 58 38             	adc    %ebx,0x38(%eax)
  40ceed:	36 5f                	ss pop %edi
  40ceef:	54                   	push   %esp
  40cef0:	55                   	push   %ebp
  40cef1:	4e                   	dec    %esi
  40cef2:	45                   	inc    %ebp
  40cef3:	5f                   	pop    %edi
  40cef4:	4d                   	dec    %ebp
  40cef5:	49                   	dec    %ecx
  40cef6:	53                   	push   %ebx
  40cef7:	41                   	inc    %ecx
  40cef8:	4c                   	dec    %esp
  40cef9:	49                   	dec    %ecx
  40cefa:	47                   	inc    %edi
  40cefb:	4e                   	dec    %esi
  40cefc:	45                   	inc    %ebp
  40cefd:	44                   	inc    %esp
  40cefe:	5f                   	pop    %edi
  40ceff:	4d                   	dec    %ebp
  40cf00:	4f                   	dec    %edi
  40cf01:	56                   	push   %esi
  40cf02:	45                   	inc    %ebp
  40cf03:	5f                   	pop    %edi
  40cf04:	53                   	push   %ebx
  40cf05:	54                   	push   %esp
  40cf06:	52                   	push   %edx
  40cf07:	49                   	dec    %ecx
  40cf08:	4e                   	dec    %esi
  40cf09:	47                   	inc    %edi
  40cf0a:	5f                   	pop    %edi
  40cf0b:	50                   	push   %eax
  40cf0c:	52                   	push   %edx
  40cf0d:	4f                   	dec    %edi
  40cf0e:	5f                   	pop    %edi
  40cf0f:	45                   	inc    %ebp
  40cf10:	50                   	push   %eax
  40cf11:	49                   	dec    %ecx
  40cf12:	4c                   	dec    %esp
  40cf13:	4f                   	dec    %edi
  40cf14:	47                   	inc    %edi
  40cf15:	55                   	push   %ebp
  40cf16:	45                   	inc    %ebp
  40cf17:	53                   	push   %ebx
  40cf18:	00 24 11             	add    %ah,(%ecx,%edx,1)
  40cf1b:	58                   	pop    %eax
  40cf1c:	38 36                	cmp    %dh,(%esi)
  40cf1e:	5f                   	pop    %edi
  40cf1f:	54                   	push   %esp
  40cf20:	55                   	push   %ebp
  40cf21:	4e                   	dec    %esi
  40cf22:	45                   	inc    %ebp
  40cf23:	5f                   	pop    %edi
  40cf24:	55                   	push   %ebp
  40cf25:	53                   	push   %ebx
  40cf26:	45                   	inc    %ebp
  40cf27:	5f                   	pop    %edi
  40cf28:	53                   	push   %ebx
  40cf29:	41                   	inc    %ecx
  40cf2a:	48                   	dec    %eax
  40cf2b:	46                   	inc    %esi
  40cf2c:	00 25 11 58 38 36    	add    %ah,0x36385811
  40cf32:	5f                   	pop    %edi
  40cf33:	54                   	push   %esp
  40cf34:	55                   	push   %ebp
  40cf35:	4e                   	dec    %esi
  40cf36:	45                   	inc    %ebp
  40cf37:	5f                   	pop    %edi
  40cf38:	55                   	push   %ebp
  40cf39:	53                   	push   %ebx
  40cf3a:	45                   	inc    %ebp
  40cf3b:	5f                   	pop    %edi
  40cf3c:	43                   	inc    %ebx
  40cf3d:	4c                   	dec    %esp
  40cf3e:	54                   	push   %esp
  40cf3f:	44                   	inc    %esp
  40cf40:	00 26                	add    %ah,(%esi)
  40cf42:	11 58 38             	adc    %ebx,0x38(%eax)
  40cf45:	36 5f                	ss pop %edi
  40cf47:	54                   	push   %esp
  40cf48:	55                   	push   %ebp
  40cf49:	4e                   	dec    %esi
  40cf4a:	45                   	inc    %ebp
  40cf4b:	5f                   	pop    %edi
  40cf4c:	55                   	push   %ebp
  40cf4d:	53                   	push   %ebx
  40cf4e:	45                   	inc    %ebp
  40cf4f:	5f                   	pop    %edi
  40cf50:	42                   	inc    %edx
  40cf51:	54                   	push   %esp
  40cf52:	00 27                	add    %ah,(%edi)
  40cf54:	11 58 38             	adc    %ebx,0x38(%eax)
  40cf57:	36 5f                	ss pop %edi
  40cf59:	54                   	push   %esp
  40cf5a:	55                   	push   %ebp
  40cf5b:	4e                   	dec    %esi
  40cf5c:	45                   	inc    %ebp
  40cf5d:	5f                   	pop    %edi
  40cf5e:	55                   	push   %ebp
  40cf5f:	53                   	push   %ebx
  40cf60:	45                   	inc    %ebp
  40cf61:	5f                   	pop    %edi
  40cf62:	48                   	dec    %eax
  40cf63:	49                   	dec    %ecx
  40cf64:	4d                   	dec    %ebp
  40cf65:	4f                   	dec    %edi
  40cf66:	44                   	inc    %esp
  40cf67:	45                   	inc    %ebp
  40cf68:	5f                   	pop    %edi
  40cf69:	46                   	inc    %esi
  40cf6a:	49                   	dec    %ecx
  40cf6b:	4f                   	dec    %edi
  40cf6c:	50                   	push   %eax
  40cf6d:	00 28                	add    %ch,(%eax)
  40cf6f:	11 58 38             	adc    %ebx,0x38(%eax)
  40cf72:	36 5f                	ss pop %edi
  40cf74:	54                   	push   %esp
  40cf75:	55                   	push   %ebp
  40cf76:	4e                   	dec    %esi
  40cf77:	45                   	inc    %ebp
  40cf78:	5f                   	pop    %edi
  40cf79:	55                   	push   %ebp
  40cf7a:	53                   	push   %ebx
  40cf7b:	45                   	inc    %ebp
  40cf7c:	5f                   	pop    %edi
  40cf7d:	53                   	push   %ebx
  40cf7e:	49                   	dec    %ecx
  40cf7f:	4d                   	dec    %ebp
  40cf80:	4f                   	dec    %edi
  40cf81:	44                   	inc    %esp
  40cf82:	45                   	inc    %ebp
  40cf83:	5f                   	pop    %edi
  40cf84:	46                   	inc    %esi
  40cf85:	49                   	dec    %ecx
  40cf86:	4f                   	dec    %edi
  40cf87:	50                   	push   %eax
  40cf88:	00 29                	add    %ch,(%ecx)
  40cf8a:	11 58 38             	adc    %ebx,0x38(%eax)
  40cf8d:	36 5f                	ss pop %edi
  40cf8f:	54                   	push   %esp
  40cf90:	55                   	push   %ebp
  40cf91:	4e                   	dec    %esi
  40cf92:	45                   	inc    %ebp
  40cf93:	5f                   	pop    %edi
  40cf94:	55                   	push   %ebp
  40cf95:	53                   	push   %ebx
  40cf96:	45                   	inc    %ebp
  40cf97:	5f                   	pop    %edi
  40cf98:	46                   	inc    %esi
  40cf99:	46                   	inc    %esi
  40cf9a:	52                   	push   %edx
  40cf9b:	45                   	inc    %ebp
  40cf9c:	45                   	inc    %ebp
  40cf9d:	50                   	push   %eax
  40cf9e:	00 2a                	add    %ch,(%edx)
  40cfa0:	11 58 38             	adc    %ebx,0x38(%eax)
  40cfa3:	36 5f                	ss pop %edi
  40cfa5:	54                   	push   %esp
  40cfa6:	55                   	push   %ebp
  40cfa7:	4e                   	dec    %esi
  40cfa8:	45                   	inc    %ebp
  40cfa9:	5f                   	pop    %edi
  40cfaa:	45                   	inc    %ebp
  40cfab:	58                   	pop    %eax
  40cfac:	54                   	push   %esp
  40cfad:	5f                   	pop    %edi
  40cfae:	38 30                	cmp    %dh,(%eax)
  40cfb0:	33 38                	xor    (%eax),%edi
  40cfb2:	37                   	aaa    
  40cfb3:	5f                   	pop    %edi
  40cfb4:	43                   	inc    %ebx
  40cfb5:	4f                   	dec    %edi
  40cfb6:	4e                   	dec    %esi
  40cfb7:	53                   	push   %ebx
  40cfb8:	54                   	push   %esp
  40cfb9:	41                   	inc    %ecx
  40cfba:	4e                   	dec    %esi
  40cfbb:	54                   	push   %esp
  40cfbc:	53                   	push   %ebx
  40cfbd:	00 2b                	add    %ch,(%ebx)
  40cfbf:	11 58 38             	adc    %ebx,0x38(%eax)
  40cfc2:	36 5f                	ss pop %edi
  40cfc4:	54                   	push   %esp
  40cfc5:	55                   	push   %ebp
  40cfc6:	4e                   	dec    %esi
  40cfc7:	45                   	inc    %ebp
  40cfc8:	5f                   	pop    %edi
  40cfc9:	56                   	push   %esi
  40cfca:	45                   	inc    %ebp
  40cfcb:	43                   	inc    %ebx
  40cfcc:	54                   	push   %esp
  40cfcd:	4f                   	dec    %edi
  40cfce:	52                   	push   %edx
  40cfcf:	49                   	dec    %ecx
  40cfd0:	5a                   	pop    %edx
  40cfd1:	45                   	inc    %ebp
  40cfd2:	5f                   	pop    %edi
  40cfd3:	44                   	inc    %esp
  40cfd4:	4f                   	dec    %edi
  40cfd5:	55                   	push   %ebp
  40cfd6:	42                   	inc    %edx
  40cfd7:	4c                   	dec    %esp
  40cfd8:	45                   	inc    %ebp
  40cfd9:	00 2c 11             	add    %ch,(%ecx,%edx,1)
  40cfdc:	58                   	pop    %eax
  40cfdd:	38 36                	cmp    %dh,(%esi)
  40cfdf:	5f                   	pop    %edi
  40cfe0:	54                   	push   %esp
  40cfe1:	55                   	push   %ebp
  40cfe2:	4e                   	dec    %esi
  40cfe3:	45                   	inc    %ebp
  40cfe4:	5f                   	pop    %edi
  40cfe5:	47                   	inc    %edi
  40cfe6:	45                   	inc    %ebp
  40cfe7:	4e                   	dec    %esi
  40cfe8:	45                   	inc    %ebp
  40cfe9:	52                   	push   %edx
  40cfea:	41                   	inc    %ecx
  40cfeb:	4c                   	dec    %esp
  40cfec:	5f                   	pop    %edi
  40cfed:	52                   	push   %edx
  40cfee:	45                   	inc    %ebp
  40cfef:	47                   	inc    %edi
  40cff0:	53                   	push   %ebx
  40cff1:	5f                   	pop    %edi
  40cff2:	53                   	push   %ebx
  40cff3:	53                   	push   %ebx
  40cff4:	45                   	inc    %ebp
  40cff5:	5f                   	pop    %edi
  40cff6:	53                   	push   %ebx
  40cff7:	50                   	push   %eax
  40cff8:	49                   	dec    %ecx
  40cff9:	4c                   	dec    %esp
  40cffa:	4c                   	dec    %esp
  40cffb:	00 2d 11 58 38 36    	add    %ch,0x36385811
  40d001:	5f                   	pop    %edi
  40d002:	54                   	push   %esp
  40d003:	55                   	push   %ebp
  40d004:	4e                   	dec    %esi
  40d005:	45                   	inc    %ebp
  40d006:	5f                   	pop    %edi
  40d007:	53                   	push   %ebx
  40d008:	53                   	push   %ebx
  40d009:	45                   	inc    %ebp
  40d00a:	5f                   	pop    %edi
  40d00b:	55                   	push   %ebp
  40d00c:	4e                   	dec    %esi
  40d00d:	41                   	inc    %ecx
  40d00e:	4c                   	dec    %esp
  40d00f:	49                   	dec    %ecx
  40d010:	47                   	inc    %edi
  40d011:	4e                   	dec    %esi
  40d012:	45                   	inc    %ebp
  40d013:	44                   	inc    %esp
  40d014:	5f                   	pop    %edi
  40d015:	4c                   	dec    %esp
  40d016:	4f                   	dec    %edi
  40d017:	41                   	inc    %ecx
  40d018:	44                   	inc    %esp
  40d019:	5f                   	pop    %edi
  40d01a:	4f                   	dec    %edi
  40d01b:	50                   	push   %eax
  40d01c:	54                   	push   %esp
  40d01d:	49                   	dec    %ecx
  40d01e:	4d                   	dec    %ebp
  40d01f:	41                   	inc    %ecx
  40d020:	4c                   	dec    %esp
  40d021:	00 2e                	add    %ch,(%esi)
  40d023:	11 58 38             	adc    %ebx,0x38(%eax)
  40d026:	36 5f                	ss pop %edi
  40d028:	54                   	push   %esp
  40d029:	55                   	push   %ebp
  40d02a:	4e                   	dec    %esi
  40d02b:	45                   	inc    %ebp
  40d02c:	5f                   	pop    %edi
  40d02d:	53                   	push   %ebx
  40d02e:	53                   	push   %ebx
  40d02f:	45                   	inc    %ebp
  40d030:	5f                   	pop    %edi
  40d031:	55                   	push   %ebp
  40d032:	4e                   	dec    %esi
  40d033:	41                   	inc    %ecx
  40d034:	4c                   	dec    %esp
  40d035:	49                   	dec    %ecx
  40d036:	47                   	inc    %edi
  40d037:	4e                   	dec    %esi
  40d038:	45                   	inc    %ebp
  40d039:	44                   	inc    %esp
  40d03a:	5f                   	pop    %edi
  40d03b:	53                   	push   %ebx
  40d03c:	54                   	push   %esp
  40d03d:	4f                   	dec    %edi
  40d03e:	52                   	push   %edx
  40d03f:	45                   	inc    %ebp
  40d040:	5f                   	pop    %edi
  40d041:	4f                   	dec    %edi
  40d042:	50                   	push   %eax
  40d043:	54                   	push   %esp
  40d044:	49                   	dec    %ecx
  40d045:	4d                   	dec    %ebp
  40d046:	41                   	inc    %ecx
  40d047:	4c                   	dec    %esp
  40d048:	00 2f                	add    %ch,(%edi)
  40d04a:	11 58 38             	adc    %ebx,0x38(%eax)
  40d04d:	36 5f                	ss pop %edi
  40d04f:	54                   	push   %esp
  40d050:	55                   	push   %ebp
  40d051:	4e                   	dec    %esi
  40d052:	45                   	inc    %ebp
  40d053:	5f                   	pop    %edi
  40d054:	53                   	push   %ebx
  40d055:	53                   	push   %ebx
  40d056:	45                   	inc    %ebp
  40d057:	5f                   	pop    %edi
  40d058:	50                   	push   %eax
  40d059:	41                   	inc    %ecx
  40d05a:	43                   	inc    %ebx
  40d05b:	4b                   	dec    %ebx
  40d05c:	45                   	inc    %ebp
  40d05d:	44                   	inc    %esp
  40d05e:	5f                   	pop    %edi
  40d05f:	53                   	push   %ebx
  40d060:	49                   	dec    %ecx
  40d061:	4e                   	dec    %esi
  40d062:	47                   	inc    %edi
  40d063:	4c                   	dec    %esp
  40d064:	45                   	inc    %ebp
  40d065:	5f                   	pop    %edi
  40d066:	49                   	dec    %ecx
  40d067:	4e                   	dec    %esi
  40d068:	53                   	push   %ebx
  40d069:	4e                   	dec    %esi
  40d06a:	5f                   	pop    %edi
  40d06b:	4f                   	dec    %edi
  40d06c:	50                   	push   %eax
  40d06d:	54                   	push   %esp
  40d06e:	49                   	dec    %ecx
  40d06f:	4d                   	dec    %ebp
  40d070:	41                   	inc    %ecx
  40d071:	4c                   	dec    %esp
  40d072:	00 30                	add    %dh,(%eax)
  40d074:	11 58 38             	adc    %ebx,0x38(%eax)
  40d077:	36 5f                	ss pop %edi
  40d079:	54                   	push   %esp
  40d07a:	55                   	push   %ebp
  40d07b:	4e                   	dec    %esi
  40d07c:	45                   	inc    %ebp
  40d07d:	5f                   	pop    %edi
  40d07e:	53                   	push   %ebx
  40d07f:	53                   	push   %ebx
  40d080:	45                   	inc    %ebp
  40d081:	5f                   	pop    %edi
  40d082:	54                   	push   %esp
  40d083:	59                   	pop    %ecx
  40d084:	50                   	push   %eax
  40d085:	45                   	inc    %ebp
  40d086:	4c                   	dec    %esp
  40d087:	45                   	inc    %ebp
  40d088:	53                   	push   %ebx
  40d089:	53                   	push   %ebx
  40d08a:	5f                   	pop    %edi
  40d08b:	53                   	push   %ebx
  40d08c:	54                   	push   %esp
  40d08d:	4f                   	dec    %edi
  40d08e:	52                   	push   %edx
  40d08f:	45                   	inc    %ebp
  40d090:	53                   	push   %ebx
  40d091:	00 31                	add    %dh,(%ecx)
  40d093:	11 58 38             	adc    %ebx,0x38(%eax)
  40d096:	36 5f                	ss pop %edi
  40d098:	54                   	push   %esp
  40d099:	55                   	push   %ebp
  40d09a:	4e                   	dec    %esi
  40d09b:	45                   	inc    %ebp
  40d09c:	5f                   	pop    %edi
  40d09d:	53                   	push   %ebx
  40d09e:	53                   	push   %ebx
  40d09f:	45                   	inc    %ebp
  40d0a0:	5f                   	pop    %edi
  40d0a1:	4c                   	dec    %esp
  40d0a2:	4f                   	dec    %edi
  40d0a3:	41                   	inc    %ecx
  40d0a4:	44                   	inc    %esp
  40d0a5:	30 5f 42             	xor    %bl,0x42(%edi)
  40d0a8:	59                   	pop    %ecx
  40d0a9:	5f                   	pop    %edi
  40d0aa:	50                   	push   %eax
  40d0ab:	58                   	pop    %eax
  40d0ac:	4f                   	dec    %edi
  40d0ad:	52                   	push   %edx
  40d0ae:	00 32                	add    %dh,(%edx)
  40d0b0:	11 58 38             	adc    %ebx,0x38(%eax)
  40d0b3:	36 5f                	ss pop %edi
  40d0b5:	54                   	push   %esp
  40d0b6:	55                   	push   %ebp
  40d0b7:	4e                   	dec    %esi
  40d0b8:	45                   	inc    %ebp
  40d0b9:	5f                   	pop    %edi
  40d0ba:	49                   	dec    %ecx
  40d0bb:	4e                   	dec    %esi
  40d0bc:	54                   	push   %esp
  40d0bd:	45                   	inc    %ebp
  40d0be:	52                   	push   %edx
  40d0bf:	5f                   	pop    %edi
  40d0c0:	55                   	push   %ebp
  40d0c1:	4e                   	dec    %esi
  40d0c2:	49                   	dec    %ecx
  40d0c3:	54                   	push   %esp
  40d0c4:	5f                   	pop    %edi
  40d0c5:	4d                   	dec    %ebp
  40d0c6:	4f                   	dec    %edi
  40d0c7:	56                   	push   %esi
  40d0c8:	45                   	inc    %ebp
  40d0c9:	53                   	push   %ebx
  40d0ca:	5f                   	pop    %edi
  40d0cb:	54                   	push   %esp
  40d0cc:	4f                   	dec    %edi
  40d0cd:	5f                   	pop    %edi
  40d0ce:	56                   	push   %esi
  40d0cf:	45                   	inc    %ebp
  40d0d0:	43                   	inc    %ebx
  40d0d1:	00 33                	add    %dh,(%ebx)
  40d0d3:	11 58 38             	adc    %ebx,0x38(%eax)
  40d0d6:	36 5f                	ss pop %edi
  40d0d8:	54                   	push   %esp
  40d0d9:	55                   	push   %ebp
  40d0da:	4e                   	dec    %esi
  40d0db:	45                   	inc    %ebp
  40d0dc:	5f                   	pop    %edi
  40d0dd:	49                   	dec    %ecx
  40d0de:	4e                   	dec    %esi
  40d0df:	54                   	push   %esp
  40d0e0:	45                   	inc    %ebp
  40d0e1:	52                   	push   %edx
  40d0e2:	5f                   	pop    %edi
  40d0e3:	55                   	push   %ebp
  40d0e4:	4e                   	dec    %esi
  40d0e5:	49                   	dec    %ecx
  40d0e6:	54                   	push   %esp
  40d0e7:	5f                   	pop    %edi
  40d0e8:	4d                   	dec    %ebp
  40d0e9:	4f                   	dec    %edi
  40d0ea:	56                   	push   %esi
  40d0eb:	45                   	inc    %ebp
  40d0ec:	53                   	push   %ebx
  40d0ed:	5f                   	pop    %edi
  40d0ee:	46                   	inc    %esi
  40d0ef:	52                   	push   %edx
  40d0f0:	4f                   	dec    %edi
  40d0f1:	4d                   	dec    %ebp
  40d0f2:	5f                   	pop    %edi
  40d0f3:	56                   	push   %esi
  40d0f4:	45                   	inc    %ebp
  40d0f5:	43                   	inc    %ebx
  40d0f6:	00 34 11             	add    %dh,(%ecx,%edx,1)
  40d0f9:	58                   	pop    %eax
  40d0fa:	38 36                	cmp    %dh,(%esi)
  40d0fc:	5f                   	pop    %edi
  40d0fd:	54                   	push   %esp
  40d0fe:	55                   	push   %ebp
  40d0ff:	4e                   	dec    %esi
  40d100:	45                   	inc    %ebp
  40d101:	5f                   	pop    %edi
  40d102:	49                   	dec    %ecx
  40d103:	4e                   	dec    %esi
  40d104:	54                   	push   %esp
  40d105:	45                   	inc    %ebp
  40d106:	52                   	push   %edx
  40d107:	5f                   	pop    %edi
  40d108:	55                   	push   %ebp
  40d109:	4e                   	dec    %esi
  40d10a:	49                   	dec    %ecx
  40d10b:	54                   	push   %esp
  40d10c:	5f                   	pop    %edi
  40d10d:	43                   	inc    %ebx
  40d10e:	4f                   	dec    %edi
  40d10f:	4e                   	dec    %esi
  40d110:	56                   	push   %esi
  40d111:	45                   	inc    %ebp
  40d112:	52                   	push   %edx
  40d113:	53                   	push   %ebx
  40d114:	49                   	dec    %ecx
  40d115:	4f                   	dec    %edi
  40d116:	4e                   	dec    %esi
  40d117:	53                   	push   %ebx
  40d118:	00 35 11 58 38 36    	add    %dh,0x36385811
  40d11e:	5f                   	pop    %edi
  40d11f:	54                   	push   %esp
  40d120:	55                   	push   %ebp
  40d121:	4e                   	dec    %esi
  40d122:	45                   	inc    %ebp
  40d123:	5f                   	pop    %edi
  40d124:	53                   	push   %ebx
  40d125:	50                   	push   %eax
  40d126:	4c                   	dec    %esp
  40d127:	49                   	dec    %ecx
  40d128:	54                   	push   %esp
  40d129:	5f                   	pop    %edi
  40d12a:	4d                   	dec    %ebp
  40d12b:	45                   	inc    %ebp
  40d12c:	4d                   	dec    %ebp
  40d12d:	5f                   	pop    %edi
  40d12e:	4f                   	dec    %edi
  40d12f:	50                   	push   %eax
  40d130:	4e                   	dec    %esi
  40d131:	44                   	inc    %esp
  40d132:	5f                   	pop    %edi
  40d133:	46                   	inc    %esi
  40d134:	4f                   	dec    %edi
  40d135:	52                   	push   %edx
  40d136:	5f                   	pop    %edi
  40d137:	46                   	inc    %esi
  40d138:	50                   	push   %eax
  40d139:	5f                   	pop    %edi
  40d13a:	43                   	inc    %ebx
  40d13b:	4f                   	dec    %edi
  40d13c:	4e                   	dec    %esi
  40d13d:	56                   	push   %esi
  40d13e:	45                   	inc    %ebp
  40d13f:	52                   	push   %edx
  40d140:	54                   	push   %esp
  40d141:	53                   	push   %ebx
  40d142:	00 36                	add    %dh,(%esi)
  40d144:	11 58 38             	adc    %ebx,0x38(%eax)
  40d147:	36 5f                	ss pop %edi
  40d149:	54                   	push   %esp
  40d14a:	55                   	push   %ebp
  40d14b:	4e                   	dec    %esi
  40d14c:	45                   	inc    %ebp
  40d14d:	5f                   	pop    %edi
  40d14e:	55                   	push   %ebp
  40d14f:	53                   	push   %ebx
  40d150:	45                   	inc    %ebp
  40d151:	5f                   	pop    %edi
  40d152:	56                   	push   %esi
  40d153:	45                   	inc    %ebp
  40d154:	43                   	inc    %ebx
  40d155:	54                   	push   %esp
  40d156:	4f                   	dec    %edi
  40d157:	52                   	push   %edx
  40d158:	5f                   	pop    %edi
  40d159:	46                   	inc    %esi
  40d15a:	50                   	push   %eax
  40d15b:	5f                   	pop    %edi
  40d15c:	43                   	inc    %ebx
  40d15d:	4f                   	dec    %edi
  40d15e:	4e                   	dec    %esi
  40d15f:	56                   	push   %esi
  40d160:	45                   	inc    %ebp
  40d161:	52                   	push   %edx
  40d162:	54                   	push   %esp
  40d163:	53                   	push   %ebx
  40d164:	00 37                	add    %dh,(%edi)
  40d166:	11 58 38             	adc    %ebx,0x38(%eax)
  40d169:	36 5f                	ss pop %edi
  40d16b:	54                   	push   %esp
  40d16c:	55                   	push   %ebp
  40d16d:	4e                   	dec    %esi
  40d16e:	45                   	inc    %ebp
  40d16f:	5f                   	pop    %edi
  40d170:	55                   	push   %ebp
  40d171:	53                   	push   %ebx
  40d172:	45                   	inc    %ebp
  40d173:	5f                   	pop    %edi
  40d174:	56                   	push   %esi
  40d175:	45                   	inc    %ebp
  40d176:	43                   	inc    %ebx
  40d177:	54                   	push   %esp
  40d178:	4f                   	dec    %edi
  40d179:	52                   	push   %edx
  40d17a:	5f                   	pop    %edi
  40d17b:	43                   	inc    %ebx
  40d17c:	4f                   	dec    %edi
  40d17d:	4e                   	dec    %esi
  40d17e:	56                   	push   %esi
  40d17f:	45                   	inc    %ebp
  40d180:	52                   	push   %edx
  40d181:	54                   	push   %esp
  40d182:	53                   	push   %ebx
  40d183:	00 38                	add    %bh,(%eax)
  40d185:	11 58 38             	adc    %ebx,0x38(%eax)
  40d188:	36 5f                	ss pop %edi
  40d18a:	54                   	push   %esp
  40d18b:	55                   	push   %ebp
  40d18c:	4e                   	dec    %esi
  40d18d:	45                   	inc    %ebp
  40d18e:	5f                   	pop    %edi
  40d18f:	53                   	push   %ebx
  40d190:	4c                   	dec    %esp
  40d191:	4f                   	dec    %edi
  40d192:	57                   	push   %edi
  40d193:	5f                   	pop    %edi
  40d194:	50                   	push   %eax
  40d195:	53                   	push   %ebx
  40d196:	48                   	dec    %eax
  40d197:	55                   	push   %ebp
  40d198:	46                   	inc    %esi
  40d199:	42                   	inc    %edx
  40d19a:	00 39                	add    %bh,(%ecx)
  40d19c:	11 58 38             	adc    %ebx,0x38(%eax)
  40d19f:	36 5f                	ss pop %edi
  40d1a1:	54                   	push   %esp
  40d1a2:	55                   	push   %ebp
  40d1a3:	4e                   	dec    %esi
  40d1a4:	45                   	inc    %ebp
  40d1a5:	5f                   	pop    %edi
  40d1a6:	56                   	push   %esi
  40d1a7:	45                   	inc    %ebp
  40d1a8:	43                   	inc    %ebx
  40d1a9:	54                   	push   %esp
  40d1aa:	4f                   	dec    %edi
  40d1ab:	52                   	push   %edx
  40d1ac:	5f                   	pop    %edi
  40d1ad:	50                   	push   %eax
  40d1ae:	41                   	inc    %ecx
  40d1af:	52                   	push   %edx
  40d1b0:	41                   	inc    %ecx
  40d1b1:	4c                   	dec    %esp
  40d1b2:	4c                   	dec    %esp
  40d1b3:	45                   	inc    %ebp
  40d1b4:	4c                   	dec    %esp
  40d1b5:	5f                   	pop    %edi
  40d1b6:	45                   	inc    %ebp
  40d1b7:	58                   	pop    %eax
  40d1b8:	45                   	inc    %ebp
  40d1b9:	43                   	inc    %ebx
  40d1ba:	55                   	push   %ebp
  40d1bb:	54                   	push   %esp
  40d1bc:	49                   	dec    %ecx
  40d1bd:	4f                   	dec    %edi
  40d1be:	4e                   	dec    %esi
  40d1bf:	00 3a                	add    %bh,(%edx)
  40d1c1:	11 58 38             	adc    %ebx,0x38(%eax)
  40d1c4:	36 5f                	ss pop %edi
  40d1c6:	54                   	push   %esp
  40d1c7:	55                   	push   %ebp
  40d1c8:	4e                   	dec    %esi
  40d1c9:	45                   	inc    %ebp
  40d1ca:	5f                   	pop    %edi
  40d1cb:	41                   	inc    %ecx
  40d1cc:	56                   	push   %esi
  40d1cd:	4f                   	dec    %edi
  40d1ce:	49                   	dec    %ecx
  40d1cf:	44                   	inc    %esp
  40d1d0:	5f                   	pop    %edi
  40d1d1:	34 42                	xor    $0x42,%al
  40d1d3:	59                   	pop    %ecx
  40d1d4:	54                   	push   %esp
  40d1d5:	45                   	inc    %ebp
  40d1d6:	5f                   	pop    %edi
  40d1d7:	50                   	push   %eax
  40d1d8:	52                   	push   %edx
  40d1d9:	45                   	inc    %ebp
  40d1da:	46                   	inc    %esi
  40d1db:	49                   	dec    %ecx
  40d1dc:	58                   	pop    %eax
  40d1dd:	45                   	inc    %ebp
  40d1de:	53                   	push   %ebx
  40d1df:	00 3b                	add    %bh,(%ebx)
  40d1e1:	11 58 38             	adc    %ebx,0x38(%eax)
  40d1e4:	36 5f                	ss pop %edi
  40d1e6:	54                   	push   %esp
  40d1e7:	55                   	push   %ebp
  40d1e8:	4e                   	dec    %esi
  40d1e9:	45                   	inc    %ebp
  40d1ea:	5f                   	pop    %edi
  40d1eb:	41                   	inc    %ecx
  40d1ec:	56                   	push   %esi
  40d1ed:	58                   	pop    %eax
  40d1ee:	32 35 36 5f 55 4e    	xor    0x4e555f36,%dh
  40d1f4:	41                   	inc    %ecx
  40d1f5:	4c                   	dec    %esp
  40d1f6:	49                   	dec    %ecx
  40d1f7:	47                   	inc    %edi
  40d1f8:	4e                   	dec    %esi
  40d1f9:	45                   	inc    %ebp
  40d1fa:	44                   	inc    %esp
  40d1fb:	5f                   	pop    %edi
  40d1fc:	4c                   	dec    %esp
  40d1fd:	4f                   	dec    %edi
  40d1fe:	41                   	inc    %ecx
  40d1ff:	44                   	inc    %esp
  40d200:	5f                   	pop    %edi
  40d201:	4f                   	dec    %edi
  40d202:	50                   	push   %eax
  40d203:	54                   	push   %esp
  40d204:	49                   	dec    %ecx
  40d205:	4d                   	dec    %ebp
  40d206:	41                   	inc    %ecx
  40d207:	4c                   	dec    %esp
  40d208:	00 3c 11             	add    %bh,(%ecx,%edx,1)
  40d20b:	58                   	pop    %eax
  40d20c:	38 36                	cmp    %dh,(%esi)
  40d20e:	5f                   	pop    %edi
  40d20f:	54                   	push   %esp
  40d210:	55                   	push   %ebp
  40d211:	4e                   	dec    %esi
  40d212:	45                   	inc    %ebp
  40d213:	5f                   	pop    %edi
  40d214:	41                   	inc    %ecx
  40d215:	56                   	push   %esi
  40d216:	58                   	pop    %eax
  40d217:	32 35 36 5f 55 4e    	xor    0x4e555f36,%dh
  40d21d:	41                   	inc    %ecx
  40d21e:	4c                   	dec    %esp
  40d21f:	49                   	dec    %ecx
  40d220:	47                   	inc    %edi
  40d221:	4e                   	dec    %esi
  40d222:	45                   	inc    %ebp
  40d223:	44                   	inc    %esp
  40d224:	5f                   	pop    %edi
  40d225:	53                   	push   %ebx
  40d226:	54                   	push   %esp
  40d227:	4f                   	dec    %edi
  40d228:	52                   	push   %edx
  40d229:	45                   	inc    %ebp
  40d22a:	5f                   	pop    %edi
  40d22b:	4f                   	dec    %edi
  40d22c:	50                   	push   %eax
  40d22d:	54                   	push   %esp
  40d22e:	49                   	dec    %ecx
  40d22f:	4d                   	dec    %ebp
  40d230:	41                   	inc    %ecx
  40d231:	4c                   	dec    %esp
  40d232:	00 3d 11 58 38 36    	add    %bh,0x36385811
  40d238:	5f                   	pop    %edi
  40d239:	54                   	push   %esp
  40d23a:	55                   	push   %ebp
  40d23b:	4e                   	dec    %esi
  40d23c:	45                   	inc    %ebp
  40d23d:	5f                   	pop    %edi
  40d23e:	41                   	inc    %ecx
  40d23f:	56                   	push   %esi
  40d240:	58                   	pop    %eax
  40d241:	31 32                	xor    %esi,(%edx)
  40d243:	38 5f 4f             	cmp    %bl,0x4f(%edi)
  40d246:	50                   	push   %eax
  40d247:	54                   	push   %esp
  40d248:	49                   	dec    %ecx
  40d249:	4d                   	dec    %ebp
  40d24a:	41                   	inc    %ecx
  40d24b:	4c                   	dec    %esp
  40d24c:	00 3e                	add    %bh,(%esi)
  40d24e:	11 58 38             	adc    %ebx,0x38(%eax)
  40d251:	36 5f                	ss pop %edi
  40d253:	54                   	push   %esp
  40d254:	55                   	push   %ebp
  40d255:	4e                   	dec    %esi
  40d256:	45                   	inc    %ebp
  40d257:	5f                   	pop    %edi
  40d258:	44                   	inc    %esp
  40d259:	4f                   	dec    %edi
  40d25a:	55                   	push   %ebp
  40d25b:	42                   	inc    %edx
  40d25c:	4c                   	dec    %esp
  40d25d:	45                   	inc    %ebp
  40d25e:	5f                   	pop    %edi
  40d25f:	57                   	push   %edi
  40d260:	49                   	dec    %ecx
  40d261:	54                   	push   %esp
  40d262:	48                   	dec    %eax
  40d263:	5f                   	pop    %edi
  40d264:	41                   	inc    %ecx
  40d265:	44                   	inc    %esp
  40d266:	44                   	inc    %esp
  40d267:	00 3f                	add    %bh,(%edi)
  40d269:	11 58 38             	adc    %ebx,0x38(%eax)
  40d26c:	36 5f                	ss pop %edi
  40d26e:	54                   	push   %esp
  40d26f:	55                   	push   %ebp
  40d270:	4e                   	dec    %esi
  40d271:	45                   	inc    %ebp
  40d272:	5f                   	pop    %edi
  40d273:	41                   	inc    %ecx
  40d274:	4c                   	dec    %esp
  40d275:	57                   	push   %edi
  40d276:	41                   	inc    %ecx
  40d277:	59                   	pop    %ecx
  40d278:	53                   	push   %ebx
  40d279:	5f                   	pop    %edi
  40d27a:	46                   	inc    %esi
  40d27b:	41                   	inc    %ecx
  40d27c:	4e                   	dec    %esi
  40d27d:	43                   	inc    %ebx
  40d27e:	59                   	pop    %ecx
  40d27f:	5f                   	pop    %edi
  40d280:	4d                   	dec    %ebp
  40d281:	41                   	inc    %ecx
  40d282:	54                   	push   %esp
  40d283:	48                   	dec    %eax
  40d284:	5f                   	pop    %edi
  40d285:	33 38                	xor    (%eax),%edi
  40d287:	37                   	aaa    
  40d288:	00 40 11             	add    %al,0x11(%eax)
  40d28b:	58                   	pop    %eax
  40d28c:	38 36                	cmp    %dh,(%esi)
  40d28e:	5f                   	pop    %edi
  40d28f:	54                   	push   %esp
  40d290:	55                   	push   %ebp
  40d291:	4e                   	dec    %esi
  40d292:	45                   	inc    %ebp
  40d293:	5f                   	pop    %edi
  40d294:	55                   	push   %ebp
  40d295:	4e                   	dec    %esi
  40d296:	52                   	push   %edx
  40d297:	4f                   	dec    %edi
  40d298:	4c                   	dec    %esp
  40d299:	4c                   	dec    %esp
  40d29a:	5f                   	pop    %edi
  40d29b:	53                   	push   %ebx
  40d29c:	54                   	push   %esp
  40d29d:	52                   	push   %edx
  40d29e:	4c                   	dec    %esp
  40d29f:	45                   	inc    %ebp
  40d2a0:	4e                   	dec    %esi
  40d2a1:	00 41 11             	add    %al,0x11(%ecx)
  40d2a4:	58                   	pop    %eax
  40d2a5:	38 36                	cmp    %dh,(%esi)
  40d2a7:	5f                   	pop    %edi
  40d2a8:	54                   	push   %esp
  40d2a9:	55                   	push   %ebp
  40d2aa:	4e                   	dec    %esi
  40d2ab:	45                   	inc    %ebp
  40d2ac:	5f                   	pop    %edi
  40d2ad:	53                   	push   %ebx
  40d2ae:	48                   	dec    %eax
  40d2af:	49                   	dec    %ecx
  40d2b0:	46                   	inc    %esi
  40d2b1:	54                   	push   %esp
  40d2b2:	31 00                	xor    %eax,(%eax)
  40d2b4:	42                   	inc    %edx
  40d2b5:	11 58 38             	adc    %ebx,0x38(%eax)
  40d2b8:	36 5f                	ss pop %edi
  40d2ba:	54                   	push   %esp
  40d2bb:	55                   	push   %ebp
  40d2bc:	4e                   	dec    %esi
  40d2bd:	45                   	inc    %ebp
  40d2be:	5f                   	pop    %edi
  40d2bf:	5a                   	pop    %edx
  40d2c0:	45                   	inc    %ebp
  40d2c1:	52                   	push   %edx
  40d2c2:	4f                   	dec    %edi
  40d2c3:	5f                   	pop    %edi
  40d2c4:	45                   	inc    %ebp
  40d2c5:	58                   	pop    %eax
  40d2c6:	54                   	push   %esp
  40d2c7:	45                   	inc    %ebp
  40d2c8:	4e                   	dec    %esi
  40d2c9:	44                   	inc    %esp
  40d2ca:	5f                   	pop    %edi
  40d2cb:	57                   	push   %edi
  40d2cc:	49                   	dec    %ecx
  40d2cd:	54                   	push   %esp
  40d2ce:	48                   	dec    %eax
  40d2cf:	5f                   	pop    %edi
  40d2d0:	41                   	inc    %ecx
  40d2d1:	4e                   	dec    %esi
  40d2d2:	44                   	inc    %esp
  40d2d3:	00 43 11             	add    %al,0x11(%ebx)
  40d2d6:	58                   	pop    %eax
  40d2d7:	38 36                	cmp    %dh,(%esi)
  40d2d9:	5f                   	pop    %edi
  40d2da:	54                   	push   %esp
  40d2db:	55                   	push   %ebp
  40d2dc:	4e                   	dec    %esi
  40d2dd:	45                   	inc    %ebp
  40d2de:	5f                   	pop    %edi
  40d2df:	50                   	push   %eax
  40d2e0:	52                   	push   %edx
  40d2e1:	4f                   	dec    %edi
  40d2e2:	4d                   	dec    %ebp
  40d2e3:	4f                   	dec    %edi
  40d2e4:	54                   	push   %esp
  40d2e5:	45                   	inc    %ebp
  40d2e6:	5f                   	pop    %edi
  40d2e7:	48                   	dec    %eax
  40d2e8:	49                   	dec    %ecx
  40d2e9:	4d                   	dec    %ebp
  40d2ea:	4f                   	dec    %edi
  40d2eb:	44                   	inc    %esp
  40d2ec:	45                   	inc    %ebp
  40d2ed:	5f                   	pop    %edi
  40d2ee:	49                   	dec    %ecx
  40d2ef:	4d                   	dec    %ebp
  40d2f0:	55                   	push   %ebp
  40d2f1:	4c                   	dec    %esp
  40d2f2:	00 44 11 58          	add    %al,0x58(%ecx,%edx,1)
  40d2f6:	38 36                	cmp    %dh,(%esi)
  40d2f8:	5f                   	pop    %edi
  40d2f9:	54                   	push   %esp
  40d2fa:	55                   	push   %ebp
  40d2fb:	4e                   	dec    %esi
  40d2fc:	45                   	inc    %ebp
  40d2fd:	5f                   	pop    %edi
  40d2fe:	46                   	inc    %esi
  40d2ff:	41                   	inc    %ecx
  40d300:	53                   	push   %ebx
  40d301:	54                   	push   %esp
  40d302:	5f                   	pop    %edi
  40d303:	50                   	push   %eax
  40d304:	52                   	push   %edx
  40d305:	45                   	inc    %ebp
  40d306:	46                   	inc    %esi
  40d307:	49                   	dec    %ecx
  40d308:	58                   	pop    %eax
  40d309:	00 45 11             	add    %al,0x11(%ebp)
  40d30c:	58                   	pop    %eax
  40d30d:	38 36                	cmp    %dh,(%esi)
  40d30f:	5f                   	pop    %edi
  40d310:	54                   	push   %esp
  40d311:	55                   	push   %ebp
  40d312:	4e                   	dec    %esi
  40d313:	45                   	inc    %ebp
  40d314:	5f                   	pop    %edi
  40d315:	52                   	push   %edx
  40d316:	45                   	inc    %ebp
  40d317:	41                   	inc    %ecx
  40d318:	44                   	inc    %esp
  40d319:	5f                   	pop    %edi
  40d31a:	4d                   	dec    %ebp
  40d31b:	4f                   	dec    %edi
  40d31c:	44                   	inc    %esp
  40d31d:	49                   	dec    %ecx
  40d31e:	46                   	inc    %esi
  40d31f:	59                   	pop    %ecx
  40d320:	5f                   	pop    %edi
  40d321:	57                   	push   %edi
  40d322:	52                   	push   %edx
  40d323:	49                   	dec    %ecx
  40d324:	54                   	push   %esp
  40d325:	45                   	inc    %ebp
  40d326:	00 46 11             	add    %al,0x11(%esi)
  40d329:	58                   	pop    %eax
  40d32a:	38 36                	cmp    %dh,(%esi)
  40d32c:	5f                   	pop    %edi
  40d32d:	54                   	push   %esp
  40d32e:	55                   	push   %ebp
  40d32f:	4e                   	dec    %esi
  40d330:	45                   	inc    %ebp
  40d331:	5f                   	pop    %edi
  40d332:	4d                   	dec    %ebp
  40d333:	4f                   	dec    %edi
  40d334:	56                   	push   %esi
  40d335:	45                   	inc    %ebp
  40d336:	5f                   	pop    %edi
  40d337:	4d                   	dec    %ebp
  40d338:	31 5f 56             	xor    %ebx,0x56(%edi)
  40d33b:	49                   	dec    %ecx
  40d33c:	41                   	inc    %ecx
  40d33d:	5f                   	pop    %edi
  40d33e:	4f                   	dec    %edi
  40d33f:	52                   	push   %edx
  40d340:	00 47 11             	add    %al,0x11(%edi)
  40d343:	58                   	pop    %eax
  40d344:	38 36                	cmp    %dh,(%esi)
  40d346:	5f                   	pop    %edi
  40d347:	54                   	push   %esp
  40d348:	55                   	push   %ebp
  40d349:	4e                   	dec    %esi
  40d34a:	45                   	inc    %ebp
  40d34b:	5f                   	pop    %edi
  40d34c:	4e                   	dec    %esi
  40d34d:	4f                   	dec    %edi
  40d34e:	54                   	push   %esp
  40d34f:	5f                   	pop    %edi
  40d350:	55                   	push   %ebp
  40d351:	4e                   	dec    %esi
  40d352:	50                   	push   %eax
  40d353:	41                   	inc    %ecx
  40d354:	49                   	dec    %ecx
  40d355:	52                   	push   %edx
  40d356:	41                   	inc    %ecx
  40d357:	42                   	inc    %edx
  40d358:	4c                   	dec    %esp
  40d359:	45                   	inc    %ebp
  40d35a:	00 48 11             	add    %cl,0x11(%eax)
  40d35d:	58                   	pop    %eax
  40d35e:	38 36                	cmp    %dh,(%esi)
  40d360:	5f                   	pop    %edi
  40d361:	54                   	push   %esp
  40d362:	55                   	push   %ebp
  40d363:	4e                   	dec    %esi
  40d364:	45                   	inc    %ebp
  40d365:	5f                   	pop    %edi
  40d366:	50                   	push   %eax
  40d367:	41                   	inc    %ecx
  40d368:	52                   	push   %edx
  40d369:	54                   	push   %esp
  40d36a:	49                   	dec    %ecx
  40d36b:	41                   	inc    %ecx
  40d36c:	4c                   	dec    %esp
  40d36d:	5f                   	pop    %edi
  40d36e:	52                   	push   %edx
  40d36f:	45                   	inc    %ebp
  40d370:	47                   	inc    %edi
  40d371:	5f                   	pop    %edi
  40d372:	53                   	push   %ebx
  40d373:	54                   	push   %esp
  40d374:	41                   	inc    %ecx
  40d375:	4c                   	dec    %esp
  40d376:	4c                   	dec    %esp
  40d377:	00 49 11             	add    %cl,0x11(%ecx)
  40d37a:	58                   	pop    %eax
  40d37b:	38 36                	cmp    %dh,(%esi)
  40d37d:	5f                   	pop    %edi
  40d37e:	54                   	push   %esp
  40d37f:	55                   	push   %ebp
  40d380:	4e                   	dec    %esi
  40d381:	45                   	inc    %ebp
  40d382:	5f                   	pop    %edi
  40d383:	50                   	push   %eax
  40d384:	52                   	push   %edx
  40d385:	4f                   	dec    %edi
  40d386:	4d                   	dec    %ebp
  40d387:	4f                   	dec    %edi
  40d388:	54                   	push   %esp
  40d389:	45                   	inc    %ebp
  40d38a:	5f                   	pop    %edi
  40d38b:	51                   	push   %ecx
  40d38c:	49                   	dec    %ecx
  40d38d:	4d                   	dec    %ebp
  40d38e:	4f                   	dec    %edi
  40d38f:	44                   	inc    %esp
  40d390:	45                   	inc    %ebp
  40d391:	00 4a 11             	add    %cl,0x11(%edx)
  40d394:	58                   	pop    %eax
  40d395:	38 36                	cmp    %dh,(%esi)
  40d397:	5f                   	pop    %edi
  40d398:	54                   	push   %esp
  40d399:	55                   	push   %ebp
  40d39a:	4e                   	dec    %esi
  40d39b:	45                   	inc    %ebp
  40d39c:	5f                   	pop    %edi
  40d39d:	50                   	push   %eax
  40d39e:	52                   	push   %edx
  40d39f:	4f                   	dec    %edi
  40d3a0:	4d                   	dec    %ebp
  40d3a1:	4f                   	dec    %edi
  40d3a2:	54                   	push   %esp
  40d3a3:	45                   	inc    %ebp
  40d3a4:	5f                   	pop    %edi
  40d3a5:	48                   	dec    %eax
  40d3a6:	49                   	dec    %ecx
  40d3a7:	5f                   	pop    %edi
  40d3a8:	52                   	push   %edx
  40d3a9:	45                   	inc    %ebp
  40d3aa:	47                   	inc    %edi
  40d3ab:	53                   	push   %ebx
  40d3ac:	00 4b 11             	add    %cl,0x11(%ebx)
  40d3af:	58                   	pop    %eax
  40d3b0:	38 36                	cmp    %dh,(%esi)
  40d3b2:	5f                   	pop    %edi
  40d3b3:	54                   	push   %esp
  40d3b4:	55                   	push   %ebp
  40d3b5:	4e                   	dec    %esi
  40d3b6:	45                   	inc    %ebp
  40d3b7:	5f                   	pop    %edi
  40d3b8:	48                   	dec    %eax
  40d3b9:	49                   	dec    %ecx
  40d3ba:	4d                   	dec    %ebp
  40d3bb:	4f                   	dec    %edi
  40d3bc:	44                   	inc    %esp
  40d3bd:	45                   	inc    %ebp
  40d3be:	5f                   	pop    %edi
  40d3bf:	4d                   	dec    %ebp
  40d3c0:	41                   	inc    %ecx
  40d3c1:	54                   	push   %esp
  40d3c2:	48                   	dec    %eax
  40d3c3:	00 4c 11 58          	add    %cl,0x58(%ecx,%edx,1)
  40d3c7:	38 36                	cmp    %dh,(%esi)
  40d3c9:	5f                   	pop    %edi
  40d3ca:	54                   	push   %esp
  40d3cb:	55                   	push   %ebp
  40d3cc:	4e                   	dec    %esi
  40d3cd:	45                   	inc    %ebp
  40d3ce:	5f                   	pop    %edi
  40d3cf:	53                   	push   %ebx
  40d3d0:	50                   	push   %eax
  40d3d1:	4c                   	dec    %esp
  40d3d2:	49                   	dec    %ecx
  40d3d3:	54                   	push   %esp
  40d3d4:	5f                   	pop    %edi
  40d3d5:	4c                   	dec    %esp
  40d3d6:	4f                   	dec    %edi
  40d3d7:	4e                   	dec    %esi
  40d3d8:	47                   	inc    %edi
  40d3d9:	5f                   	pop    %edi
  40d3da:	4d                   	dec    %ebp
  40d3db:	4f                   	dec    %edi
  40d3dc:	56                   	push   %esi
  40d3dd:	45                   	inc    %ebp
  40d3de:	53                   	push   %ebx
  40d3df:	00 4d 11             	add    %cl,0x11(%ebp)
  40d3e2:	58                   	pop    %eax
  40d3e3:	38 36                	cmp    %dh,(%esi)
  40d3e5:	5f                   	pop    %edi
  40d3e6:	54                   	push   %esp
  40d3e7:	55                   	push   %ebp
  40d3e8:	4e                   	dec    %esi
  40d3e9:	45                   	inc    %ebp
  40d3ea:	5f                   	pop    %edi
  40d3eb:	55                   	push   %ebp
  40d3ec:	53                   	push   %ebx
  40d3ed:	45                   	inc    %ebp
  40d3ee:	5f                   	pop    %edi
  40d3ef:	58                   	pop    %eax
  40d3f0:	43                   	inc    %ebx
  40d3f1:	48                   	dec    %eax
  40d3f2:	47                   	inc    %edi
  40d3f3:	42                   	inc    %edx
  40d3f4:	00 4e 11             	add    %cl,0x11(%esi)
  40d3f7:	58                   	pop    %eax
  40d3f8:	38 36                	cmp    %dh,(%esi)
  40d3fa:	5f                   	pop    %edi
  40d3fb:	54                   	push   %esp
  40d3fc:	55                   	push   %ebp
  40d3fd:	4e                   	dec    %esi
  40d3fe:	45                   	inc    %ebp
  40d3ff:	5f                   	pop    %edi
  40d400:	55                   	push   %ebp
  40d401:	53                   	push   %ebx
  40d402:	45                   	inc    %ebp
  40d403:	5f                   	pop    %edi
  40d404:	4d                   	dec    %ebp
  40d405:	4f                   	dec    %edi
  40d406:	56                   	push   %esi
  40d407:	30 00                	xor    %al,(%eax)
  40d409:	4f                   	dec    %edi
  40d40a:	11 58 38             	adc    %ebx,0x38(%eax)
  40d40d:	36 5f                	ss pop %edi
  40d40f:	54                   	push   %esp
  40d410:	55                   	push   %ebp
  40d411:	4e                   	dec    %esi
  40d412:	45                   	inc    %ebp
  40d413:	5f                   	pop    %edi
  40d414:	4e                   	dec    %esi
  40d415:	4f                   	dec    %edi
  40d416:	54                   	push   %esp
  40d417:	5f                   	pop    %edi
  40d418:	56                   	push   %esi
  40d419:	45                   	inc    %ebp
  40d41a:	43                   	inc    %ebx
  40d41b:	54                   	push   %esp
  40d41c:	4f                   	dec    %edi
  40d41d:	52                   	push   %edx
  40d41e:	4d                   	dec    %ebp
  40d41f:	4f                   	dec    %edi
  40d420:	44                   	inc    %esp
  40d421:	45                   	inc    %ebp
  40d422:	00 50 11             	add    %dl,0x11(%eax)
  40d425:	58                   	pop    %eax
  40d426:	38 36                	cmp    %dh,(%esi)
  40d428:	5f                   	pop    %edi
  40d429:	54                   	push   %esp
  40d42a:	55                   	push   %ebp
  40d42b:	4e                   	dec    %esi
  40d42c:	45                   	inc    %ebp
  40d42d:	5f                   	pop    %edi
  40d42e:	41                   	inc    %ecx
  40d42f:	56                   	push   %esi
  40d430:	4f                   	dec    %edi
  40d431:	49                   	dec    %ecx
  40d432:	44                   	inc    %esp
  40d433:	5f                   	pop    %edi
  40d434:	56                   	push   %esi
  40d435:	45                   	inc    %ebp
  40d436:	43                   	inc    %ebx
  40d437:	54                   	push   %esp
  40d438:	4f                   	dec    %edi
  40d439:	52                   	push   %edx
  40d43a:	5f                   	pop    %edi
  40d43b:	44                   	inc    %esp
  40d43c:	45                   	inc    %ebp
  40d43d:	43                   	inc    %ebx
  40d43e:	4f                   	dec    %edi
  40d43f:	44                   	inc    %esp
  40d440:	45                   	inc    %ebp
  40d441:	00 51 11             	add    %dl,0x11(%ecx)
  40d444:	58                   	pop    %eax
  40d445:	38 36                	cmp    %dh,(%esi)
  40d447:	5f                   	pop    %edi
  40d448:	54                   	push   %esp
  40d449:	55                   	push   %ebp
  40d44a:	4e                   	dec    %esi
  40d44b:	45                   	inc    %ebp
  40d44c:	5f                   	pop    %edi
  40d44d:	41                   	inc    %ecx
  40d44e:	56                   	push   %esi
  40d44f:	4f                   	dec    %edi
  40d450:	49                   	dec    %ecx
  40d451:	44                   	inc    %esp
  40d452:	5f                   	pop    %edi
  40d453:	46                   	inc    %esi
  40d454:	41                   	inc    %ecx
  40d455:	4c                   	dec    %esp
  40d456:	53                   	push   %ebx
  40d457:	45                   	inc    %ebp
  40d458:	5f                   	pop    %edi
  40d459:	44                   	inc    %esp
  40d45a:	45                   	inc    %ebp
  40d45b:	50                   	push   %eax
  40d45c:	5f                   	pop    %edi
  40d45d:	46                   	inc    %esi
  40d45e:	4f                   	dec    %edi
  40d45f:	52                   	push   %edx
  40d460:	5f                   	pop    %edi
  40d461:	42                   	inc    %edx
  40d462:	4d                   	dec    %ebp
  40d463:	49                   	dec    %ecx
  40d464:	00 52 11             	add    %dl,0x11(%edx)
  40d467:	58                   	pop    %eax
  40d468:	38 36                	cmp    %dh,(%esi)
  40d46a:	5f                   	pop    %edi
  40d46b:	54                   	push   %esp
  40d46c:	55                   	push   %ebp
  40d46d:	4e                   	dec    %esi
  40d46e:	45                   	inc    %ebp
  40d46f:	5f                   	pop    %edi
  40d470:	42                   	inc    %edx
  40d471:	52                   	push   %edx
  40d472:	41                   	inc    %ecx
  40d473:	4e                   	dec    %esi
  40d474:	43                   	inc    %ebx
  40d475:	48                   	dec    %eax
  40d476:	5f                   	pop    %edi
  40d477:	50                   	push   %eax
  40d478:	52                   	push   %edx
  40d479:	45                   	inc    %ebp
  40d47a:	44                   	inc    %esp
  40d47b:	49                   	dec    %ecx
  40d47c:	43                   	inc    %ebx
  40d47d:	54                   	push   %esp
  40d47e:	49                   	dec    %ecx
  40d47f:	4f                   	dec    %edi
  40d480:	4e                   	dec    %esi
  40d481:	5f                   	pop    %edi
  40d482:	48                   	dec    %eax
  40d483:	49                   	dec    %ecx
  40d484:	4e                   	dec    %esi
  40d485:	54                   	push   %esp
  40d486:	53                   	push   %ebx
  40d487:	00 53 11             	add    %dl,0x11(%ebx)
  40d48a:	58                   	pop    %eax
  40d48b:	38 36                	cmp    %dh,(%esi)
  40d48d:	5f                   	pop    %edi
  40d48e:	54                   	push   %esp
  40d48f:	55                   	push   %ebp
  40d490:	4e                   	dec    %esi
  40d491:	45                   	inc    %ebp
  40d492:	5f                   	pop    %edi
  40d493:	51                   	push   %ecx
  40d494:	49                   	dec    %ecx
  40d495:	4d                   	dec    %ebp
  40d496:	4f                   	dec    %edi
  40d497:	44                   	inc    %esp
  40d498:	45                   	inc    %ebp
  40d499:	5f                   	pop    %edi
  40d49a:	4d                   	dec    %ebp
  40d49b:	41                   	inc    %ecx
  40d49c:	54                   	push   %esp
  40d49d:	48                   	dec    %eax
  40d49e:	00 54 11 58          	add    %dl,0x58(%ecx,%edx,1)
  40d4a2:	38 36                	cmp    %dh,(%esi)
  40d4a4:	5f                   	pop    %edi
  40d4a5:	54                   	push   %esp
  40d4a6:	55                   	push   %ebp
  40d4a7:	4e                   	dec    %esi
  40d4a8:	45                   	inc    %ebp
  40d4a9:	5f                   	pop    %edi
  40d4aa:	50                   	push   %eax
  40d4ab:	52                   	push   %edx
  40d4ac:	4f                   	dec    %edi
  40d4ad:	4d                   	dec    %ebp
  40d4ae:	4f                   	dec    %edi
  40d4af:	54                   	push   %esp
  40d4b0:	45                   	inc    %ebp
  40d4b1:	5f                   	pop    %edi
  40d4b2:	51                   	push   %ecx
  40d4b3:	49                   	dec    %ecx
  40d4b4:	5f                   	pop    %edi
  40d4b5:	52                   	push   %edx
  40d4b6:	45                   	inc    %ebp
  40d4b7:	47                   	inc    %edi
  40d4b8:	53                   	push   %ebx
  40d4b9:	00 55 11             	add    %dl,0x11(%ebp)
  40d4bc:	58                   	pop    %eax
  40d4bd:	38 36                	cmp    %dh,(%esi)
  40d4bf:	5f                   	pop    %edi
  40d4c0:	54                   	push   %esp
  40d4c1:	55                   	push   %ebp
  40d4c2:	4e                   	dec    %esi
  40d4c3:	45                   	inc    %ebp
  40d4c4:	5f                   	pop    %edi
  40d4c5:	41                   	inc    %ecx
  40d4c6:	44                   	inc    %esp
  40d4c7:	4a                   	dec    %edx
  40d4c8:	55                   	push   %ebp
  40d4c9:	53                   	push   %ebx
  40d4ca:	54                   	push   %esp
  40d4cb:	5f                   	pop    %edi
  40d4cc:	55                   	push   %ebp
  40d4cd:	4e                   	dec    %esi
  40d4ce:	52                   	push   %edx
  40d4cf:	4f                   	dec    %edi
  40d4d0:	4c                   	dec    %esp
  40d4d1:	4c                   	dec    %esp
  40d4d2:	00 56 11             	add    %dl,0x11(%esi)
  40d4d5:	58                   	pop    %eax
  40d4d6:	38 36                	cmp    %dh,(%esi)
  40d4d8:	5f                   	pop    %edi
  40d4d9:	54                   	push   %esp
  40d4da:	55                   	push   %ebp
  40d4db:	4e                   	dec    %esi
  40d4dc:	45                   	inc    %ebp
  40d4dd:	5f                   	pop    %edi
  40d4de:	4f                   	dec    %edi
  40d4df:	4e                   	dec    %esi
  40d4e0:	45                   	inc    %ebp
  40d4e1:	5f                   	pop    %edi
  40d4e2:	49                   	dec    %ecx
  40d4e3:	46                   	inc    %esi
  40d4e4:	5f                   	pop    %edi
  40d4e5:	43                   	inc    %ebx
  40d4e6:	4f                   	dec    %edi
  40d4e7:	4e                   	dec    %esi
  40d4e8:	56                   	push   %esi
  40d4e9:	5f                   	pop    %edi
  40d4ea:	49                   	dec    %ecx
  40d4eb:	4e                   	dec    %esi
  40d4ec:	53                   	push   %ebx
  40d4ed:	4e                   	dec    %esi
  40d4ee:	00 57 11             	add    %dl,0x11(%edi)
  40d4f1:	58                   	pop    %eax
  40d4f2:	38 36                	cmp    %dh,(%esi)
  40d4f4:	5f                   	pop    %edi
  40d4f5:	54                   	push   %esp
  40d4f6:	55                   	push   %ebp
  40d4f7:	4e                   	dec    %esi
  40d4f8:	45                   	inc    %ebp
  40d4f9:	5f                   	pop    %edi
  40d4fa:	4c                   	dec    %esp
  40d4fb:	41                   	inc    %ecx
  40d4fc:	53                   	push   %ebx
  40d4fd:	54                   	push   %esp
  40d4fe:	00 58 00             	add    %bl,0x0(%eax)
  40d501:	08 2b                	or     %ch,(%ebx)
  40d503:	04 00                	add    $0x0,%al
  40d505:	00 6a 14             	add    %ch,0x14(%edx)
  40d508:	00 00                	add    %al,(%eax)
  40d50a:	0c db                	or     $0xdb,%al
  40d50c:	02 00                	add    (%eax),%al
  40d50e:	00 57 00             	add    %dl,0x0(%edi)
  40d511:	0b 69 78             	or     0x78(%ecx),%ebp
  40d514:	38 36                	cmp    %dh,(%esi)
  40d516:	5f                   	pop    %edi
  40d517:	74 75                	je     40d58e <.debug_info+0x14e7>
  40d519:	6e                   	outsb  %ds:(%esi),(%dx)
  40d51a:	65 5f                	gs pop %edi
  40d51c:	66 65 61             	gs popaw 
  40d51f:	74 75                	je     40d596 <.debug_info+0x14ef>
  40d521:	72 65                	jb     40d588 <.debug_info+0x14e1>
  40d523:	73 00                	jae    40d525 <.debug_info+0x147e>
  40d525:	07                   	pop    %es
  40d526:	73 01                	jae    40d529 <.debug_info+0x1482>
  40d528:	5a                   	pop    %edx
  40d529:	14 00                	adc    $0x0,%al
  40d52b:	00 15 69 78 38 36    	add    %dl,0x36387869
  40d531:	5f                   	pop    %edi
  40d532:	61                   	popa   
  40d533:	72 63                	jb     40d598 <.debug_info+0x14f1>
  40d535:	68 5f 69 6e 64       	push   $0x646e695f
  40d53a:	69 63 65 73 00 04 f8 	imul   $0xf8040073,0x65(%ebx),%esp
  40d541:	00 00                	add    %al,(%eax)
  40d543:	00 07                	add    %al,(%edi)
  40d545:	fa                   	cli    
  40d546:	01 0e                	add    %ecx,(%esi)
  40d548:	15 00 00 11 58       	adc    $0x58110000,%eax
  40d54d:	38 36                	cmp    %dh,(%esi)
  40d54f:	5f                   	pop    %edi
  40d550:	41                   	inc    %ecx
  40d551:	52                   	push   %edx
  40d552:	43                   	inc    %ebx
  40d553:	48                   	dec    %eax
  40d554:	5f                   	pop    %edi
  40d555:	43                   	inc    %ebx
  40d556:	4d                   	dec    %ebp
  40d557:	4f                   	dec    %edi
  40d558:	56                   	push   %esi
  40d559:	00 00                	add    %al,(%eax)
  40d55b:	11 58 38             	adc    %ebx,0x38(%eax)
  40d55e:	36 5f                	ss pop %edi
  40d560:	41                   	inc    %ecx
  40d561:	52                   	push   %edx
  40d562:	43                   	inc    %ebx
  40d563:	48                   	dec    %eax
  40d564:	5f                   	pop    %edi
  40d565:	43                   	inc    %ebx
  40d566:	4d                   	dec    %ebp
  40d567:	50                   	push   %eax
  40d568:	58                   	pop    %eax
  40d569:	43                   	inc    %ebx
  40d56a:	48                   	dec    %eax
  40d56b:	47                   	inc    %edi
  40d56c:	00 01                	add    %al,(%ecx)
  40d56e:	11 58 38             	adc    %ebx,0x38(%eax)
  40d571:	36 5f                	ss pop %edi
  40d573:	41                   	inc    %ecx
  40d574:	52                   	push   %edx
  40d575:	43                   	inc    %ebx
  40d576:	48                   	dec    %eax
  40d577:	5f                   	pop    %edi
  40d578:	43                   	inc    %ebx
  40d579:	4d                   	dec    %ebp
  40d57a:	50                   	push   %eax
  40d57b:	58                   	pop    %eax
  40d57c:	43                   	inc    %ebx
  40d57d:	48                   	dec    %eax
  40d57e:	47                   	inc    %edi
  40d57f:	38 42 00             	cmp    %al,0x0(%edx)
  40d582:	02 11                	add    (%ecx),%dl
  40d584:	58                   	pop    %eax
  40d585:	38 36                	cmp    %dh,(%esi)
  40d587:	5f                   	pop    %edi
  40d588:	41                   	inc    %ecx
  40d589:	52                   	push   %edx
  40d58a:	43                   	inc    %ebx
  40d58b:	48                   	dec    %eax
  40d58c:	5f                   	pop    %edi
  40d58d:	58                   	pop    %eax
  40d58e:	41                   	inc    %ecx
  40d58f:	44                   	inc    %esp
  40d590:	44                   	inc    %esp
  40d591:	00 03                	add    %al,(%ebx)
  40d593:	11 58 38             	adc    %ebx,0x38(%eax)
  40d596:	36 5f                	ss pop %edi
  40d598:	41                   	inc    %ecx
  40d599:	52                   	push   %edx
  40d59a:	43                   	inc    %ebx
  40d59b:	48                   	dec    %eax
  40d59c:	5f                   	pop    %edi
  40d59d:	42                   	inc    %edx
  40d59e:	53                   	push   %ebx
  40d59f:	57                   	push   %edi
  40d5a0:	41                   	inc    %ecx
  40d5a1:	50                   	push   %eax
  40d5a2:	00 04 11             	add    %al,(%ecx,%edx,1)
  40d5a5:	58                   	pop    %eax
  40d5a6:	38 36                	cmp    %dh,(%esi)
  40d5a8:	5f                   	pop    %edi
  40d5a9:	41                   	inc    %ecx
  40d5aa:	52                   	push   %edx
  40d5ab:	43                   	inc    %ebx
  40d5ac:	48                   	dec    %eax
  40d5ad:	5f                   	pop    %edi
  40d5ae:	4c                   	dec    %esp
  40d5af:	41                   	inc    %ecx
  40d5b0:	53                   	push   %ebx
  40d5b1:	54                   	push   %esp
  40d5b2:	00 05 00 08 2b 04    	add    %al,0x42b0800
  40d5b8:	00 00                	add    %al,(%eax)
  40d5ba:	1e                   	push   %ds
  40d5bb:	15 00 00 0c db       	adc    $0xdb0c0000,%eax
  40d5c0:	02 00                	add    (%eax),%al
  40d5c2:	00 04 00             	add    %al,(%eax,%eax,1)
  40d5c5:	0b 69 78             	or     0x78(%ecx),%ebp
  40d5c8:	38 36                	cmp    %dh,(%esi)
  40d5ca:	5f                   	pop    %edi
  40d5cb:	61                   	popa   
  40d5cc:	72 63                	jb     40d631 <.debug_info+0x158a>
  40d5ce:	68 5f 66 65 61       	push   $0x6165665f
  40d5d3:	74 75                	je     40d64a <.debug_info+0x15a3>
  40d5d5:	72 65                	jb     40d63c <.debug_info+0x1595>
  40d5d7:	73 00                	jae    40d5d9 <.debug_info+0x1532>
  40d5d9:	07                   	pop    %es
  40d5da:	04 02                	add    $0x2,%al
  40d5dc:	0e                   	push   %cs
  40d5dd:	15 00 00 0b 78       	adc    $0x780b0000,%eax
  40d5e2:	38 36                	cmp    %dh,(%esi)
  40d5e4:	5f                   	pop    %edi
  40d5e5:	70 72                	jo     40d659 <.debug_info+0x15b2>
  40d5e7:	65 66 65 74 63       	gs data16 gs je 40d64f <.debug_info+0x15a8>
  40d5ec:	68 5f 73 73 65       	push   $0x6573735f
  40d5f1:	00 07                	add    %al,(%edi)
  40d5f3:	13 02                	adc    (%edx),%eax
  40d5f5:	2b 04 00             	sub    (%eax,%eax,1),%eax
  40d5f8:	00 16                	add    %dl,(%esi)
  40d5fa:	5f                   	pop    %edi
  40d5fb:	64 6f                	outsl  %fs:(%esi),(%dx)
  40d5fd:	6e                   	outsb  %ds:(%esi),(%dx)
  40d5fe:	74 5f                	je     40d65f <.debug_info+0x15b8>
  40d600:	75 73                	jne    40d675 <.debug_info+0x15ce>
  40d602:	65 5f                	gs pop %edi
  40d604:	74 72                	je     40d678 <.debug_info+0x15d1>
  40d606:	65 65 5f             	gs gs pop %edi
  40d609:	68 65 72 65 5f       	push   $0x5f657265
  40d60e:	00 0b                	add    %cl,(%ebx)
  40d610:	78 38                	js     40d64a <.debug_info+0x15a3>
  40d612:	36 5f                	ss pop %edi
  40d614:	6d                   	insl   (%dx),%es:(%edi)
  40d615:	66 65 6e             	data16 outsb %gs:(%esi),(%dx)
  40d618:	63 65 00             	arpl   %sp,0x0(%ebp)
  40d61b:	07                   	pop    %es
  40d61c:	31 02                	xor    %eax,(%edx)
  40d61e:	7b 15                	jnp    40d635 <.debug_info+0x158e>
  40d620:	00 00                	add    %al,(%eax)
  40d622:	06                   	push   %es
  40d623:	04 52                	add    $0x52,%al
  40d625:	15 00 00 15 72       	adc    $0x72150000,%eax
  40d62a:	65 67 5f             	gs addr16 pop %edi
  40d62d:	63 6c 61 73          	arpl   %bp,0x73(%ecx,%eiz,2)
  40d631:	73 00                	jae    40d633 <.debug_info+0x158c>
  40d633:	04 f8                	add    $0xf8,%al
  40d635:	00 00                	add    %al,(%eax)
  40d637:	00 07                	add    %al,(%edi)
  40d639:	3b 05 5d 17 00 00    	cmp    0x175d,%eax
  40d63f:	11 4e 4f             	adc    %ecx,0x4f(%esi)
  40d642:	5f                   	pop    %edi
  40d643:	52                   	push   %edx
  40d644:	45                   	inc    %ebp
  40d645:	47                   	inc    %edi
  40d646:	53                   	push   %ebx
  40d647:	00 00                	add    %al,(%eax)
  40d649:	11 41 52             	adc    %eax,0x52(%ecx)
  40d64c:	45                   	inc    %ebp
  40d64d:	47                   	inc    %edi
  40d64e:	00 01                	add    %al,(%ecx)
  40d650:	11 44 52 45          	adc    %eax,0x45(%edx,%edx,2)
  40d654:	47                   	inc    %edi
  40d655:	00 02                	add    %al,(%edx)
  40d657:	11 43 52             	adc    %eax,0x52(%ebx)
  40d65a:	45                   	inc    %ebp
  40d65b:	47                   	inc    %edi
  40d65c:	00 03                	add    %al,(%ebx)
  40d65e:	11 42 52             	adc    %eax,0x52(%edx)
  40d661:	45                   	inc    %ebp
  40d662:	47                   	inc    %edi
  40d663:	00 04 11             	add    %al,(%ecx,%edx,1)
  40d666:	53                   	push   %ebx
  40d667:	49                   	dec    %ecx
  40d668:	52                   	push   %edx
  40d669:	45                   	inc    %ebp
  40d66a:	47                   	inc    %edi
  40d66b:	00 05 11 44 49 52    	add    %al,0x52494411
  40d671:	45                   	inc    %ebp
  40d672:	47                   	inc    %edi
  40d673:	00 06                	add    %al,(%esi)
  40d675:	11 41 44             	adc    %eax,0x44(%ecx)
  40d678:	5f                   	pop    %edi
  40d679:	52                   	push   %edx
  40d67a:	45                   	inc    %ebp
  40d67b:	47                   	inc    %edi
  40d67c:	53                   	push   %ebx
  40d67d:	00 07                	add    %al,(%edi)
  40d67f:	11 43 4c             	adc    %eax,0x4c(%ebx)
  40d682:	4f                   	dec    %edi
  40d683:	42                   	inc    %edx
  40d684:	42                   	inc    %edx
  40d685:	45                   	inc    %ebp
  40d686:	52                   	push   %edx
  40d687:	45                   	inc    %ebp
  40d688:	44                   	inc    %esp
  40d689:	5f                   	pop    %edi
  40d68a:	52                   	push   %edx
  40d68b:	45                   	inc    %ebp
  40d68c:	47                   	inc    %edi
  40d68d:	53                   	push   %ebx
  40d68e:	00 08                	add    %cl,(%eax)
  40d690:	11 51 5f             	adc    %edx,0x5f(%ecx)
  40d693:	52                   	push   %edx
  40d694:	45                   	inc    %ebp
  40d695:	47                   	inc    %edi
  40d696:	53                   	push   %ebx
  40d697:	00 09                	add    %cl,(%ecx)
  40d699:	11 4e 4f             	adc    %ecx,0x4f(%esi)
  40d69c:	4e                   	dec    %esi
  40d69d:	5f                   	pop    %edi
  40d69e:	51                   	push   %ecx
  40d69f:	5f                   	pop    %edi
  40d6a0:	52                   	push   %edx
  40d6a1:	45                   	inc    %ebp
  40d6a2:	47                   	inc    %edi
  40d6a3:	53                   	push   %ebx
  40d6a4:	00 0a                	add    %cl,(%edx)
  40d6a6:	11 49 4e             	adc    %ecx,0x4e(%ecx)
  40d6a9:	44                   	inc    %esp
  40d6aa:	45                   	inc    %ebp
  40d6ab:	58                   	pop    %eax
  40d6ac:	5f                   	pop    %edi
  40d6ad:	52                   	push   %edx
  40d6ae:	45                   	inc    %ebp
  40d6af:	47                   	inc    %edi
  40d6b0:	53                   	push   %ebx
  40d6b1:	00 0b                	add    %cl,(%ebx)
  40d6b3:	11 4c 45 47          	adc    %ecx,0x47(%ebp,%eax,2)
  40d6b7:	41                   	inc    %ecx
  40d6b8:	43                   	inc    %ebx
  40d6b9:	59                   	pop    %ecx
  40d6ba:	5f                   	pop    %edi
  40d6bb:	52                   	push   %edx
  40d6bc:	45                   	inc    %ebp
  40d6bd:	47                   	inc    %edi
  40d6be:	53                   	push   %ebx
  40d6bf:	00 0c 11             	add    %cl,(%ecx,%edx,1)
  40d6c2:	47                   	inc    %edi
  40d6c3:	45                   	inc    %ebp
  40d6c4:	4e                   	dec    %esi
  40d6c5:	45                   	inc    %ebp
  40d6c6:	52                   	push   %edx
  40d6c7:	41                   	inc    %ecx
  40d6c8:	4c                   	dec    %esp
  40d6c9:	5f                   	pop    %edi
  40d6ca:	52                   	push   %edx
  40d6cb:	45                   	inc    %ebp
  40d6cc:	47                   	inc    %edi
  40d6cd:	53                   	push   %ebx
  40d6ce:	00 0d 11 46 50 5f    	add    %cl,0x5f504611
  40d6d4:	54                   	push   %esp
  40d6d5:	4f                   	dec    %edi
  40d6d6:	50                   	push   %eax
  40d6d7:	5f                   	pop    %edi
  40d6d8:	52                   	push   %edx
  40d6d9:	45                   	inc    %ebp
  40d6da:	47                   	inc    %edi
  40d6db:	00 0e                	add    %cl,(%esi)
  40d6dd:	11 46 50             	adc    %eax,0x50(%esi)
  40d6e0:	5f                   	pop    %edi
  40d6e1:	53                   	push   %ebx
  40d6e2:	45                   	inc    %ebp
  40d6e3:	43                   	inc    %ebx
  40d6e4:	4f                   	dec    %edi
  40d6e5:	4e                   	dec    %esi
  40d6e6:	44                   	inc    %esp
  40d6e7:	5f                   	pop    %edi
  40d6e8:	52                   	push   %edx
  40d6e9:	45                   	inc    %ebp
  40d6ea:	47                   	inc    %edi
  40d6eb:	00 0f                	add    %cl,(%edi)
  40d6ed:	11 46 4c             	adc    %eax,0x4c(%esi)
  40d6f0:	4f                   	dec    %edi
  40d6f1:	41                   	inc    %ecx
  40d6f2:	54                   	push   %esp
  40d6f3:	5f                   	pop    %edi
  40d6f4:	52                   	push   %edx
  40d6f5:	45                   	inc    %ebp
  40d6f6:	47                   	inc    %edi
  40d6f7:	53                   	push   %ebx
  40d6f8:	00 10                	add    %dl,(%eax)
  40d6fa:	11 53 53             	adc    %edx,0x53(%ebx)
  40d6fd:	45                   	inc    %ebp
  40d6fe:	5f                   	pop    %edi
  40d6ff:	46                   	inc    %esi
  40d700:	49                   	dec    %ecx
  40d701:	52                   	push   %edx
  40d702:	53                   	push   %ebx
  40d703:	54                   	push   %esp
  40d704:	5f                   	pop    %edi
  40d705:	52                   	push   %edx
  40d706:	45                   	inc    %ebp
  40d707:	47                   	inc    %edi
  40d708:	00 11                	add    %dl,(%ecx)
  40d70a:	11 4e 4f             	adc    %ecx,0x4f(%esi)
  40d70d:	5f                   	pop    %edi
  40d70e:	52                   	push   %edx
  40d70f:	45                   	inc    %ebp
  40d710:	58                   	pop    %eax
  40d711:	5f                   	pop    %edi
  40d712:	53                   	push   %ebx
  40d713:	53                   	push   %ebx
  40d714:	45                   	inc    %ebp
  40d715:	5f                   	pop    %edi
  40d716:	52                   	push   %edx
  40d717:	45                   	inc    %ebp
  40d718:	47                   	inc    %edi
  40d719:	53                   	push   %ebx
  40d71a:	00 12                	add    %dl,(%edx)
  40d71c:	11 53 53             	adc    %edx,0x53(%ebx)
  40d71f:	45                   	inc    %ebp
  40d720:	5f                   	pop    %edi
  40d721:	52                   	push   %edx
  40d722:	45                   	inc    %ebp
  40d723:	47                   	inc    %edi
  40d724:	53                   	push   %ebx
  40d725:	00 13                	add    %dl,(%ebx)
  40d727:	11 45 56             	adc    %eax,0x56(%ebp)
  40d72a:	45                   	inc    %ebp
  40d72b:	58                   	pop    %eax
  40d72c:	5f                   	pop    %edi
  40d72d:	53                   	push   %ebx
  40d72e:	53                   	push   %ebx
  40d72f:	45                   	inc    %ebp
  40d730:	5f                   	pop    %edi
  40d731:	52                   	push   %edx
  40d732:	45                   	inc    %ebp
  40d733:	47                   	inc    %edi
  40d734:	53                   	push   %ebx
  40d735:	00 14 11             	add    %dl,(%ecx,%edx,1)
  40d738:	42                   	inc    %edx
  40d739:	4e                   	dec    %esi
  40d73a:	44                   	inc    %esp
  40d73b:	5f                   	pop    %edi
  40d73c:	52                   	push   %edx
  40d73d:	45                   	inc    %ebp
  40d73e:	47                   	inc    %edi
  40d73f:	53                   	push   %ebx
  40d740:	00 15 11 41 4c 4c    	add    %dl,0x4c4c4111
  40d746:	5f                   	pop    %edi
  40d747:	53                   	push   %ebx
  40d748:	53                   	push   %ebx
  40d749:	45                   	inc    %ebp
  40d74a:	5f                   	pop    %edi
  40d74b:	52                   	push   %edx
  40d74c:	45                   	inc    %ebp
  40d74d:	47                   	inc    %edi
  40d74e:	53                   	push   %ebx
  40d74f:	00 16                	add    %dl,(%esi)
  40d751:	11 4d 4d             	adc    %ecx,0x4d(%ebp)
  40d754:	58                   	pop    %eax
  40d755:	5f                   	pop    %edi
  40d756:	52                   	push   %edx
  40d757:	45                   	inc    %ebp
  40d758:	47                   	inc    %edi
  40d759:	53                   	push   %ebx
  40d75a:	00 17                	add    %dl,(%edi)
  40d75c:	11 46 50             	adc    %eax,0x50(%esi)
  40d75f:	5f                   	pop    %edi
  40d760:	54                   	push   %esp
  40d761:	4f                   	dec    %edi
  40d762:	50                   	push   %eax
  40d763:	5f                   	pop    %edi
  40d764:	53                   	push   %ebx
  40d765:	53                   	push   %ebx
  40d766:	45                   	inc    %ebp
  40d767:	5f                   	pop    %edi
  40d768:	52                   	push   %edx
  40d769:	45                   	inc    %ebp
  40d76a:	47                   	inc    %edi
  40d76b:	53                   	push   %ebx
  40d76c:	00 18                	add    %bl,(%eax)
  40d76e:	11 46 50             	adc    %eax,0x50(%esi)
  40d771:	5f                   	pop    %edi
  40d772:	53                   	push   %ebx
  40d773:	45                   	inc    %ebp
  40d774:	43                   	inc    %ebx
  40d775:	4f                   	dec    %edi
  40d776:	4e                   	dec    %esi
  40d777:	44                   	inc    %esp
  40d778:	5f                   	pop    %edi
  40d779:	53                   	push   %ebx
  40d77a:	53                   	push   %ebx
  40d77b:	45                   	inc    %ebp
  40d77c:	5f                   	pop    %edi
  40d77d:	52                   	push   %edx
  40d77e:	45                   	inc    %ebp
  40d77f:	47                   	inc    %edi
  40d780:	53                   	push   %ebx
  40d781:	00 19                	add    %bl,(%ecx)
  40d783:	11 46 4c             	adc    %eax,0x4c(%esi)
  40d786:	4f                   	dec    %edi
  40d787:	41                   	inc    %ecx
  40d788:	54                   	push   %esp
  40d789:	5f                   	pop    %edi
  40d78a:	53                   	push   %ebx
  40d78b:	53                   	push   %ebx
  40d78c:	45                   	inc    %ebp
  40d78d:	5f                   	pop    %edi
  40d78e:	52                   	push   %edx
  40d78f:	45                   	inc    %ebp
  40d790:	47                   	inc    %edi
  40d791:	53                   	push   %ebx
  40d792:	00 1a                	add    %bl,(%edx)
  40d794:	11 46 4c             	adc    %eax,0x4c(%esi)
  40d797:	4f                   	dec    %edi
  40d798:	41                   	inc    %ecx
  40d799:	54                   	push   %esp
  40d79a:	5f                   	pop    %edi
  40d79b:	49                   	dec    %ecx
  40d79c:	4e                   	dec    %esi
  40d79d:	54                   	push   %esp
  40d79e:	5f                   	pop    %edi
  40d79f:	52                   	push   %edx
  40d7a0:	45                   	inc    %ebp
  40d7a1:	47                   	inc    %edi
  40d7a2:	53                   	push   %ebx
  40d7a3:	00 1b                	add    %bl,(%ebx)
  40d7a5:	11 49 4e             	adc    %ecx,0x4e(%ecx)
  40d7a8:	54                   	push   %esp
  40d7a9:	5f                   	pop    %edi
  40d7aa:	53                   	push   %ebx
  40d7ab:	53                   	push   %ebx
  40d7ac:	45                   	inc    %ebp
  40d7ad:	5f                   	pop    %edi
  40d7ae:	52                   	push   %edx
  40d7af:	45                   	inc    %ebp
  40d7b0:	47                   	inc    %edi
  40d7b1:	53                   	push   %ebx
  40d7b2:	00 1c 11             	add    %bl,(%ecx,%edx,1)
  40d7b5:	46                   	inc    %esi
  40d7b6:	4c                   	dec    %esp
  40d7b7:	4f                   	dec    %edi
  40d7b8:	41                   	inc    %ecx
  40d7b9:	54                   	push   %esp
  40d7ba:	5f                   	pop    %edi
  40d7bb:	49                   	dec    %ecx
  40d7bc:	4e                   	dec    %esi
  40d7bd:	54                   	push   %esp
  40d7be:	5f                   	pop    %edi
  40d7bf:	53                   	push   %ebx
  40d7c0:	53                   	push   %ebx
  40d7c1:	45                   	inc    %ebp
  40d7c2:	5f                   	pop    %edi
  40d7c3:	52                   	push   %edx
  40d7c4:	45                   	inc    %ebp
  40d7c5:	47                   	inc    %edi
  40d7c6:	53                   	push   %ebx
  40d7c7:	00 1d 11 4d 41 53    	add    %bl,0x53414d11
  40d7cd:	4b                   	dec    %ebx
  40d7ce:	5f                   	pop    %edi
  40d7cf:	45                   	inc    %ebp
  40d7d0:	56                   	push   %esi
  40d7d1:	45                   	inc    %ebp
  40d7d2:	58                   	pop    %eax
  40d7d3:	5f                   	pop    %edi
  40d7d4:	52                   	push   %edx
  40d7d5:	45                   	inc    %ebp
  40d7d6:	47                   	inc    %edi
  40d7d7:	53                   	push   %ebx
  40d7d8:	00 1e                	add    %bl,(%esi)
  40d7da:	11 4d 41             	adc    %ecx,0x41(%ebp)
  40d7dd:	53                   	push   %ebx
  40d7de:	4b                   	dec    %ebx
  40d7df:	5f                   	pop    %edi
  40d7e0:	52                   	push   %edx
  40d7e1:	45                   	inc    %ebp
  40d7e2:	47                   	inc    %edi
  40d7e3:	53                   	push   %ebx
  40d7e4:	00 1f                	add    %bl,(%edi)
  40d7e6:	11 41 4c             	adc    %eax,0x4c(%ecx)
  40d7e9:	4c                   	dec    %esp
  40d7ea:	5f                   	pop    %edi
  40d7eb:	52                   	push   %edx
  40d7ec:	45                   	inc    %ebp
  40d7ed:	47                   	inc    %edi
  40d7ee:	53                   	push   %ebx
  40d7ef:	00 20                	add    %ah,(%eax)
  40d7f1:	11 4c 49 4d          	adc    %ecx,0x4d(%ecx,%ecx,2)
  40d7f5:	5f                   	pop    %edi
  40d7f6:	52                   	push   %edx
  40d7f7:	45                   	inc    %ebp
  40d7f8:	47                   	inc    %edi
  40d7f9:	5f                   	pop    %edi
  40d7fa:	43                   	inc    %ebx
  40d7fb:	4c                   	dec    %esp
  40d7fc:	41                   	inc    %ecx
  40d7fd:	53                   	push   %ebx
  40d7fe:	53                   	push   %ebx
  40d7ff:	45                   	inc    %ebp
  40d800:	53                   	push   %ebx
  40d801:	00 21                	add    %ah,(%ecx)
  40d803:	00 03                	add    %al,(%ebx)
  40d805:	81 15 00 00 08 f3 00 	adcl   $0x72000000,0xf3080000
  40d80c:	00 00 72 
  40d80f:	17                   	pop    %ss
  40d810:	00 00                	add    %al,(%eax)
  40d812:	0c db                	or     $0xdb,%al
  40d814:	02 00                	add    (%eax),%al
  40d816:	00 50 00             	add    %dl,0x0(%eax)
  40d819:	03 62 17             	add    0x17(%edx),%esp
  40d81c:	00 00                	add    %al,(%eax)
  40d81e:	0b 64 62 78          	or     0x78(%edx,%eiz,2),%esp
  40d822:	5f                   	pop    %edi
  40d823:	72 65                	jb     40d88a <.debug_info+0x17e3>
  40d825:	67 69 73 74 65 72 5f 	imul   $0x6d5f7265,0x74(%bp,%di),%esi
  40d82c:	6d 
  40d82d:	61                   	popa   
  40d82e:	70 00                	jo     40d830 <.debug_info+0x1789>
  40d830:	07                   	pop    %es
  40d831:	63 08                	arpl   %cx,(%eax)
  40d833:	72 17                	jb     40d84c <.debug_info+0x17a5>
  40d835:	00 00                	add    %al,(%eax)
  40d837:	0b 64 62 78          	or     0x78(%edx,%eiz,2),%esp
  40d83b:	36 34 5f             	ss xor $0x5f,%al
  40d83e:	72 65                	jb     40d8a5 <.debug_info+0x17fe>
  40d840:	67 69 73 74 65 72 5f 	imul   $0x6d5f7265,0x74(%bp,%di),%esi
  40d847:	6d 
  40d848:	61                   	popa   
  40d849:	70 00                	jo     40d84b <.debug_info+0x17a4>
  40d84b:	07                   	pop    %es
  40d84c:	64 08 72 17          	or     %dh,%fs:0x17(%edx)
  40d850:	00 00                	add    %al,(%eax)
  40d852:	0b 73 76             	or     0x76(%ebx),%esi
  40d855:	72 34                	jb     40d88b <.debug_info+0x17e4>
  40d857:	5f                   	pop    %edi
  40d858:	64 62 78 5f          	bound  %edi,%fs:0x5f(%eax)
  40d85c:	72 65                	jb     40d8c3 <.debug_info+0x181c>
  40d85e:	67 69 73 74 65 72 5f 	imul   $0x6d5f7265,0x74(%bp,%di),%esi
  40d865:	6d 
  40d866:	61                   	popa   
  40d867:	70 00                	jo     40d869 <.debug_info+0x17c2>
  40d869:	07                   	pop    %es
  40d86a:	65 08 72 17          	or     %dh,%gs:0x17(%edx)
  40d86e:	00 00                	add    %al,(%eax)
  40d870:	08 f3                	or     %dh,%bl
  40d872:	00 00                	add    %al,(%eax)
  40d874:	00 d9                	add    %bl,%cl
  40d876:	17                   	pop    %ss
  40d877:	00 00                	add    %al,(%eax)
  40d879:	0c db                	or     $0xdb,%al
  40d87b:	02 00                	add    (%eax),%al
  40d87d:	00 0b                	add    %cl,(%ebx)
  40d87f:	00 03                	add    %al,(%ebx)
  40d881:	c9                   	leave  
  40d882:	17                   	pop    %ss
  40d883:	00 00                	add    %al,(%eax)
  40d885:	0b 78 38             	or     0x38(%eax),%edi
  40d888:	36 5f                	ss pop %edi
  40d88a:	36 34 5f             	ss xor $0x5f,%al
  40d88d:	6d                   	insl   (%dx),%es:(%edi)
  40d88e:	73 5f                	jae    40d8ef <.debug_info+0x1848>
  40d890:	73 79                	jae    40d90b <.debug_info+0x1864>
  40d892:	73 76                	jae    40d90a <.debug_info+0x1863>
  40d894:	5f                   	pop    %edi
  40d895:	65 78 74             	gs js  40d90c <.debug_info+0x1865>
  40d898:	72 61                	jb     40d8fb <.debug_info+0x1854>
  40d89a:	5f                   	pop    %edi
  40d89b:	63 6c 6f 62          	arpl   %bp,0x62(%edi,%ebp,2)
  40d89f:	62 65 72             	bound  %esp,0x72(%ebp)
  40d8a2:	65 64 5f             	gs fs pop %edi
  40d8a5:	72 65                	jb     40d90c <.debug_info+0x1865>
  40d8a7:	67 69 73 74 65 72 73 	imul   $0x737265,0x74(%bp,%di),%esi
  40d8ae:	00 
  40d8af:	07                   	pop    %es
  40d8b0:	67 08 d9             	addr16 or %bl,%cl
  40d8b3:	17                   	pop    %ss
  40d8b4:	00 00                	add    %al,(%eax)
  40d8b6:	15 70 72 6f 63       	adc    $0x636f7270,%eax
  40d8bb:	65 73 73             	gs jae 40d931 <.debug_info+0x188a>
  40d8be:	6f                   	outsl  %ds:(%esi),(%dx)
  40d8bf:	72 5f                	jb     40d920 <.debug_info+0x1879>
  40d8c1:	74 79                	je     40d93c <.debug_info+0x1895>
  40d8c3:	70 65                	jo     40d92a <.debug_info+0x1883>
  40d8c5:	00 04 f8             	add    %al,(%eax,%edi,8)
  40d8c8:	00 00                	add    %al,(%eax)
  40d8ca:	00 07                	add    %al,(%edi)
  40d8cc:	f7                   	(bad)  
  40d8cd:	08 71 1a             	or     %dh,0x1a(%ecx)
  40d8d0:	00 00                	add    %al,(%eax)
  40d8d2:	11 50 52             	adc    %edx,0x52(%eax)
  40d8d5:	4f                   	dec    %edi
  40d8d6:	43                   	inc    %ebx
  40d8d7:	45                   	inc    %ebp
  40d8d8:	53                   	push   %ebx
  40d8d9:	53                   	push   %ebx
  40d8da:	4f                   	dec    %edi
  40d8db:	52                   	push   %edx
  40d8dc:	5f                   	pop    %edi
  40d8dd:	47                   	inc    %edi
  40d8de:	45                   	inc    %ebp
  40d8df:	4e                   	dec    %esi
  40d8e0:	45                   	inc    %ebp
  40d8e1:	52                   	push   %edx
  40d8e2:	49                   	dec    %ecx
  40d8e3:	43                   	inc    %ebx
  40d8e4:	00 00                	add    %al,(%eax)
  40d8e6:	11 50 52             	adc    %edx,0x52(%eax)
  40d8e9:	4f                   	dec    %edi
  40d8ea:	43                   	inc    %ebx
  40d8eb:	45                   	inc    %ebp
  40d8ec:	53                   	push   %ebx
  40d8ed:	53                   	push   %ebx
  40d8ee:	4f                   	dec    %edi
  40d8ef:	52                   	push   %edx
  40d8f0:	5f                   	pop    %edi
  40d8f1:	49                   	dec    %ecx
  40d8f2:	33 38                	xor    (%eax),%edi
  40d8f4:	36 00 01             	add    %al,%ss:(%ecx)
  40d8f7:	11 50 52             	adc    %edx,0x52(%eax)
  40d8fa:	4f                   	dec    %edi
  40d8fb:	43                   	inc    %ebx
  40d8fc:	45                   	inc    %ebp
  40d8fd:	53                   	push   %ebx
  40d8fe:	53                   	push   %ebx
  40d8ff:	4f                   	dec    %edi
  40d900:	52                   	push   %edx
  40d901:	5f                   	pop    %edi
  40d902:	49                   	dec    %ecx
  40d903:	34 38                	xor    $0x38,%al
  40d905:	36 00 02             	add    %al,%ss:(%edx)
  40d908:	11 50 52             	adc    %edx,0x52(%eax)
  40d90b:	4f                   	dec    %edi
  40d90c:	43                   	inc    %ebx
  40d90d:	45                   	inc    %ebp
  40d90e:	53                   	push   %ebx
  40d90f:	53                   	push   %ebx
  40d910:	4f                   	dec    %edi
  40d911:	52                   	push   %edx
  40d912:	5f                   	pop    %edi
  40d913:	50                   	push   %eax
  40d914:	45                   	inc    %ebp
  40d915:	4e                   	dec    %esi
  40d916:	54                   	push   %esp
  40d917:	49                   	dec    %ecx
  40d918:	55                   	push   %ebp
  40d919:	4d                   	dec    %ebp
  40d91a:	00 03                	add    %al,(%ebx)
  40d91c:	11 50 52             	adc    %edx,0x52(%eax)
  40d91f:	4f                   	dec    %edi
  40d920:	43                   	inc    %ebx
  40d921:	45                   	inc    %ebp
  40d922:	53                   	push   %ebx
  40d923:	53                   	push   %ebx
  40d924:	4f                   	dec    %edi
  40d925:	52                   	push   %edx
  40d926:	5f                   	pop    %edi
  40d927:	4c                   	dec    %esp
  40d928:	41                   	inc    %ecx
  40d929:	4b                   	dec    %ebx
  40d92a:	45                   	inc    %ebp
  40d92b:	4d                   	dec    %ebp
  40d92c:	4f                   	dec    %edi
  40d92d:	4e                   	dec    %esi
  40d92e:	54                   	push   %esp
  40d92f:	00 04 11             	add    %al,(%ecx,%edx,1)
  40d932:	50                   	push   %eax
  40d933:	52                   	push   %edx
  40d934:	4f                   	dec    %edi
  40d935:	43                   	inc    %ebx
  40d936:	45                   	inc    %ebp
  40d937:	53                   	push   %ebx
  40d938:	53                   	push   %ebx
  40d939:	4f                   	dec    %edi
  40d93a:	52                   	push   %edx
  40d93b:	5f                   	pop    %edi
  40d93c:	50                   	push   %eax
  40d93d:	45                   	inc    %ebp
  40d93e:	4e                   	dec    %esi
  40d93f:	54                   	push   %esp
  40d940:	49                   	dec    %ecx
  40d941:	55                   	push   %ebp
  40d942:	4d                   	dec    %ebp
  40d943:	50                   	push   %eax
  40d944:	52                   	push   %edx
  40d945:	4f                   	dec    %edi
  40d946:	00 05 11 50 52 4f    	add    %al,0x4f525011
  40d94c:	43                   	inc    %ebx
  40d94d:	45                   	inc    %ebp
  40d94e:	53                   	push   %ebx
  40d94f:	53                   	push   %ebx
  40d950:	4f                   	dec    %edi
  40d951:	52                   	push   %edx
  40d952:	5f                   	pop    %edi
  40d953:	50                   	push   %eax
  40d954:	45                   	inc    %ebp
  40d955:	4e                   	dec    %esi
  40d956:	54                   	push   %esp
  40d957:	49                   	dec    %ecx
  40d958:	55                   	push   %ebp
  40d959:	4d                   	dec    %ebp
  40d95a:	34 00                	xor    $0x0,%al
  40d95c:	06                   	push   %es
  40d95d:	11 50 52             	adc    %edx,0x52(%eax)
  40d960:	4f                   	dec    %edi
  40d961:	43                   	inc    %ebx
  40d962:	45                   	inc    %ebp
  40d963:	53                   	push   %ebx
  40d964:	53                   	push   %ebx
  40d965:	4f                   	dec    %edi
  40d966:	52                   	push   %edx
  40d967:	5f                   	pop    %edi
  40d968:	4e                   	dec    %esi
  40d969:	4f                   	dec    %edi
  40d96a:	43                   	inc    %ebx
  40d96b:	4f                   	dec    %edi
  40d96c:	4e                   	dec    %esi
  40d96d:	41                   	inc    %ecx
  40d96e:	00 07                	add    %al,(%edi)
  40d970:	11 50 52             	adc    %edx,0x52(%eax)
  40d973:	4f                   	dec    %edi
  40d974:	43                   	inc    %ebx
  40d975:	45                   	inc    %ebp
  40d976:	53                   	push   %ebx
  40d977:	53                   	push   %ebx
  40d978:	4f                   	dec    %edi
  40d979:	52                   	push   %edx
  40d97a:	5f                   	pop    %edi
  40d97b:	43                   	inc    %ebx
  40d97c:	4f                   	dec    %edi
  40d97d:	52                   	push   %edx
  40d97e:	45                   	inc    %ebp
  40d97f:	32 00                	xor    (%eax),%al
  40d981:	08 11                	or     %dl,(%ecx)
  40d983:	50                   	push   %eax
  40d984:	52                   	push   %edx
  40d985:	4f                   	dec    %edi
  40d986:	43                   	inc    %ebx
  40d987:	45                   	inc    %ebp
  40d988:	53                   	push   %ebx
  40d989:	53                   	push   %ebx
  40d98a:	4f                   	dec    %edi
  40d98b:	52                   	push   %edx
  40d98c:	5f                   	pop    %edi
  40d98d:	4e                   	dec    %esi
  40d98e:	45                   	inc    %ebp
  40d98f:	48                   	dec    %eax
  40d990:	41                   	inc    %ecx
  40d991:	4c                   	dec    %esp
  40d992:	45                   	inc    %ebp
  40d993:	4d                   	dec    %ebp
  40d994:	00 09                	add    %cl,(%ecx)
  40d996:	11 50 52             	adc    %edx,0x52(%eax)
  40d999:	4f                   	dec    %edi
  40d99a:	43                   	inc    %ebx
  40d99b:	45                   	inc    %ebp
  40d99c:	53                   	push   %ebx
  40d99d:	53                   	push   %ebx
  40d99e:	4f                   	dec    %edi
  40d99f:	52                   	push   %edx
  40d9a0:	5f                   	pop    %edi
  40d9a1:	53                   	push   %ebx
  40d9a2:	41                   	inc    %ecx
  40d9a3:	4e                   	dec    %esi
  40d9a4:	44                   	inc    %esp
  40d9a5:	59                   	pop    %ecx
  40d9a6:	42                   	inc    %edx
  40d9a7:	52                   	push   %edx
  40d9a8:	49                   	dec    %ecx
  40d9a9:	44                   	inc    %esp
  40d9aa:	47                   	inc    %edi
  40d9ab:	45                   	inc    %ebp
  40d9ac:	00 0a                	add    %cl,(%edx)
  40d9ae:	11 50 52             	adc    %edx,0x52(%eax)
  40d9b1:	4f                   	dec    %edi
  40d9b2:	43                   	inc    %ebx
  40d9b3:	45                   	inc    %ebp
  40d9b4:	53                   	push   %ebx
  40d9b5:	53                   	push   %ebx
  40d9b6:	4f                   	dec    %edi
  40d9b7:	52                   	push   %edx
  40d9b8:	5f                   	pop    %edi
  40d9b9:	48                   	dec    %eax
  40d9ba:	41                   	inc    %ecx
  40d9bb:	53                   	push   %ebx
  40d9bc:	57                   	push   %edi
  40d9bd:	45                   	inc    %ebp
  40d9be:	4c                   	dec    %esp
  40d9bf:	4c                   	dec    %esp
  40d9c0:	00 0b                	add    %cl,(%ebx)
  40d9c2:	11 50 52             	adc    %edx,0x52(%eax)
  40d9c5:	4f                   	dec    %edi
  40d9c6:	43                   	inc    %ebx
  40d9c7:	45                   	inc    %ebp
  40d9c8:	53                   	push   %ebx
  40d9c9:	53                   	push   %ebx
  40d9ca:	4f                   	dec    %edi
  40d9cb:	52                   	push   %edx
  40d9cc:	5f                   	pop    %edi
  40d9cd:	42                   	inc    %edx
  40d9ce:	4f                   	dec    %edi
  40d9cf:	4e                   	dec    %esi
  40d9d0:	4e                   	dec    %esi
  40d9d1:	45                   	inc    %ebp
  40d9d2:	4c                   	dec    %esp
  40d9d3:	4c                   	dec    %esp
  40d9d4:	00 0c 11             	add    %cl,(%ecx,%edx,1)
  40d9d7:	50                   	push   %eax
  40d9d8:	52                   	push   %edx
  40d9d9:	4f                   	dec    %edi
  40d9da:	43                   	inc    %ebx
  40d9db:	45                   	inc    %ebp
  40d9dc:	53                   	push   %ebx
  40d9dd:	53                   	push   %ebx
  40d9de:	4f                   	dec    %edi
  40d9df:	52                   	push   %edx
  40d9e0:	5f                   	pop    %edi
  40d9e1:	53                   	push   %ebx
  40d9e2:	49                   	dec    %ecx
  40d9e3:	4c                   	dec    %esp
  40d9e4:	56                   	push   %esi
  40d9e5:	45                   	inc    %ebp
  40d9e6:	52                   	push   %edx
  40d9e7:	4d                   	dec    %ebp
  40d9e8:	4f                   	dec    %edi
  40d9e9:	4e                   	dec    %esi
  40d9ea:	54                   	push   %esp
  40d9eb:	00 0d 11 50 52 4f    	add    %cl,0x4f525011
  40d9f1:	43                   	inc    %ebx
  40d9f2:	45                   	inc    %ebp
  40d9f3:	53                   	push   %ebx
  40d9f4:	53                   	push   %ebx
  40d9f5:	4f                   	dec    %edi
  40d9f6:	52                   	push   %edx
  40d9f7:	5f                   	pop    %edi
  40d9f8:	4b                   	dec    %ebx
  40d9f9:	4e                   	dec    %esi
  40d9fa:	4c                   	dec    %esp
  40d9fb:	00 0e                	add    %cl,(%esi)
  40d9fd:	11 50 52             	adc    %edx,0x52(%eax)
  40da00:	4f                   	dec    %edi
  40da01:	43                   	inc    %ebx
  40da02:	45                   	inc    %ebp
  40da03:	53                   	push   %ebx
  40da04:	53                   	push   %ebx
  40da05:	4f                   	dec    %edi
  40da06:	52                   	push   %edx
  40da07:	5f                   	pop    %edi
  40da08:	53                   	push   %ebx
  40da09:	4b                   	dec    %ebx
  40da0a:	59                   	pop    %ecx
  40da0b:	4c                   	dec    %esp
  40da0c:	41                   	inc    %ecx
  40da0d:	4b                   	dec    %ebx
  40da0e:	45                   	inc    %ebp
  40da0f:	5f                   	pop    %edi
  40da10:	41                   	inc    %ecx
  40da11:	56                   	push   %esi
  40da12:	58                   	pop    %eax
  40da13:	35 31 32 00 0f       	xor    $0xf003231,%eax
  40da18:	11 50 52             	adc    %edx,0x52(%eax)
  40da1b:	4f                   	dec    %edi
  40da1c:	43                   	inc    %ebx
  40da1d:	45                   	inc    %ebp
  40da1e:	53                   	push   %ebx
  40da1f:	53                   	push   %ebx
  40da20:	4f                   	dec    %edi
  40da21:	52                   	push   %edx
  40da22:	5f                   	pop    %edi
  40da23:	49                   	dec    %ecx
  40da24:	4e                   	dec    %esi
  40da25:	54                   	push   %esp
  40da26:	45                   	inc    %ebp
  40da27:	4c                   	dec    %esp
  40da28:	00 10                	add    %dl,(%eax)
  40da2a:	11 50 52             	adc    %edx,0x52(%eax)
  40da2d:	4f                   	dec    %edi
  40da2e:	43                   	inc    %ebx
  40da2f:	45                   	inc    %ebp
  40da30:	53                   	push   %ebx
  40da31:	53                   	push   %ebx
  40da32:	4f                   	dec    %edi
  40da33:	52                   	push   %edx
  40da34:	5f                   	pop    %edi
  40da35:	47                   	inc    %edi
  40da36:	45                   	inc    %ebp
  40da37:	4f                   	dec    %edi
  40da38:	44                   	inc    %esp
  40da39:	45                   	inc    %ebp
  40da3a:	00 11                	add    %dl,(%ecx)
  40da3c:	11 50 52             	adc    %edx,0x52(%eax)
  40da3f:	4f                   	dec    %edi
  40da40:	43                   	inc    %ebx
  40da41:	45                   	inc    %ebp
  40da42:	53                   	push   %ebx
  40da43:	53                   	push   %ebx
  40da44:	4f                   	dec    %edi
  40da45:	52                   	push   %edx
  40da46:	5f                   	pop    %edi
  40da47:	4b                   	dec    %ebx
  40da48:	36 00 12             	add    %dl,%ss:(%edx)
  40da4b:	11 50 52             	adc    %edx,0x52(%eax)
  40da4e:	4f                   	dec    %edi
  40da4f:	43                   	inc    %ebx
  40da50:	45                   	inc    %ebp
  40da51:	53                   	push   %ebx
  40da52:	53                   	push   %ebx
  40da53:	4f                   	dec    %edi
  40da54:	52                   	push   %edx
  40da55:	5f                   	pop    %edi
  40da56:	41                   	inc    %ecx
  40da57:	54                   	push   %esp
  40da58:	48                   	dec    %eax
  40da59:	4c                   	dec    %esp
  40da5a:	4f                   	dec    %edi
  40da5b:	4e                   	dec    %esi
  40da5c:	00 13                	add    %dl,(%ebx)
  40da5e:	11 50 52             	adc    %edx,0x52(%eax)
  40da61:	4f                   	dec    %edi
  40da62:	43                   	inc    %ebx
  40da63:	45                   	inc    %ebp
  40da64:	53                   	push   %ebx
  40da65:	53                   	push   %ebx
  40da66:	4f                   	dec    %edi
  40da67:	52                   	push   %edx
  40da68:	5f                   	pop    %edi
  40da69:	4b                   	dec    %ebx
  40da6a:	38 00                	cmp    %al,(%eax)
  40da6c:	14 11                	adc    $0x11,%al
  40da6e:	50                   	push   %eax
  40da6f:	52                   	push   %edx
  40da70:	4f                   	dec    %edi
  40da71:	43                   	inc    %ebx
  40da72:	45                   	inc    %ebp
  40da73:	53                   	push   %ebx
  40da74:	53                   	push   %ebx
  40da75:	4f                   	dec    %edi
  40da76:	52                   	push   %edx
  40da77:	5f                   	pop    %edi
  40da78:	41                   	inc    %ecx
  40da79:	4d                   	dec    %ebp
  40da7a:	44                   	inc    %esp
  40da7b:	46                   	inc    %esi
  40da7c:	41                   	inc    %ecx
  40da7d:	4d                   	dec    %ebp
  40da7e:	31 30                	xor    %esi,(%eax)
  40da80:	00 15 11 50 52 4f    	add    %dl,0x4f525011
  40da86:	43                   	inc    %ebx
  40da87:	45                   	inc    %ebp
  40da88:	53                   	push   %ebx
  40da89:	53                   	push   %ebx
  40da8a:	4f                   	dec    %edi
  40da8b:	52                   	push   %edx
  40da8c:	5f                   	pop    %edi
  40da8d:	42                   	inc    %edx
  40da8e:	44                   	inc    %esp
  40da8f:	56                   	push   %esi
  40da90:	45                   	inc    %ebp
  40da91:	52                   	push   %edx
  40da92:	31 00                	xor    %eax,(%eax)
  40da94:	16                   	push   %ss
  40da95:	11 50 52             	adc    %edx,0x52(%eax)
  40da98:	4f                   	dec    %edi
  40da99:	43                   	inc    %ebx
  40da9a:	45                   	inc    %ebp
  40da9b:	53                   	push   %ebx
  40da9c:	53                   	push   %ebx
  40da9d:	4f                   	dec    %edi
  40da9e:	52                   	push   %edx
  40da9f:	5f                   	pop    %edi
  40daa0:	42                   	inc    %edx
  40daa1:	44                   	inc    %esp
  40daa2:	56                   	push   %esi
  40daa3:	45                   	inc    %ebp
  40daa4:	52                   	push   %edx
  40daa5:	32 00                	xor    (%eax),%al
  40daa7:	17                   	pop    %ss
  40daa8:	11 50 52             	adc    %edx,0x52(%eax)
  40daab:	4f                   	dec    %edi
  40daac:	43                   	inc    %ebx
  40daad:	45                   	inc    %ebp
  40daae:	53                   	push   %ebx
  40daaf:	53                   	push   %ebx
  40dab0:	4f                   	dec    %edi
  40dab1:	52                   	push   %edx
  40dab2:	5f                   	pop    %edi
  40dab3:	42                   	inc    %edx
  40dab4:	44                   	inc    %esp
  40dab5:	56                   	push   %esi
  40dab6:	45                   	inc    %ebp
  40dab7:	52                   	push   %edx
  40dab8:	33 00                	xor    (%eax),%eax
  40daba:	18 11                	sbb    %dl,(%ecx)
  40dabc:	50                   	push   %eax
  40dabd:	52                   	push   %edx
  40dabe:	4f                   	dec    %edi
  40dabf:	43                   	inc    %ebx
  40dac0:	45                   	inc    %ebp
  40dac1:	53                   	push   %ebx
  40dac2:	53                   	push   %ebx
  40dac3:	4f                   	dec    %edi
  40dac4:	52                   	push   %edx
  40dac5:	5f                   	pop    %edi
  40dac6:	42                   	inc    %edx
  40dac7:	44                   	inc    %esp
  40dac8:	56                   	push   %esi
  40dac9:	45                   	inc    %ebp
  40daca:	52                   	push   %edx
  40dacb:	34 00                	xor    $0x0,%al
  40dacd:	19 11                	sbb    %edx,(%ecx)
  40dacf:	50                   	push   %eax
  40dad0:	52                   	push   %edx
  40dad1:	4f                   	dec    %edi
  40dad2:	43                   	inc    %ebx
  40dad3:	45                   	inc    %ebp
  40dad4:	53                   	push   %ebx
  40dad5:	53                   	push   %ebx
  40dad6:	4f                   	dec    %edi
  40dad7:	52                   	push   %edx
  40dad8:	5f                   	pop    %edi
  40dad9:	42                   	inc    %edx
  40dada:	54                   	push   %esp
  40dadb:	56                   	push   %esi
  40dadc:	45                   	inc    %ebp
  40dadd:	52                   	push   %edx
  40dade:	31 00                	xor    %eax,(%eax)
  40dae0:	1a 11                	sbb    (%ecx),%dl
  40dae2:	50                   	push   %eax
  40dae3:	52                   	push   %edx
  40dae4:	4f                   	dec    %edi
  40dae5:	43                   	inc    %ebx
  40dae6:	45                   	inc    %ebp
  40dae7:	53                   	push   %ebx
  40dae8:	53                   	push   %ebx
  40dae9:	4f                   	dec    %edi
  40daea:	52                   	push   %edx
  40daeb:	5f                   	pop    %edi
  40daec:	42                   	inc    %edx
  40daed:	54                   	push   %esp
  40daee:	56                   	push   %esi
  40daef:	45                   	inc    %ebp
  40daf0:	52                   	push   %edx
  40daf1:	32 00                	xor    (%eax),%al
  40daf3:	1b 11                	sbb    (%ecx),%edx
  40daf5:	50                   	push   %eax
  40daf6:	52                   	push   %edx
  40daf7:	4f                   	dec    %edi
  40daf8:	43                   	inc    %ebx
  40daf9:	45                   	inc    %ebp
  40dafa:	53                   	push   %ebx
  40dafb:	53                   	push   %ebx
  40dafc:	4f                   	dec    %edi
  40dafd:	52                   	push   %edx
  40dafe:	5f                   	pop    %edi
  40daff:	5a                   	pop    %edx
  40db00:	4e                   	dec    %esi
  40db01:	56                   	push   %esi
  40db02:	45                   	inc    %ebp
  40db03:	52                   	push   %edx
  40db04:	31 00                	xor    %eax,(%eax)
  40db06:	1c 11                	sbb    $0x11,%al
  40db08:	50                   	push   %eax
  40db09:	52                   	push   %edx
  40db0a:	4f                   	dec    %edi
  40db0b:	43                   	inc    %ebx
  40db0c:	45                   	inc    %ebp
  40db0d:	53                   	push   %ebx
  40db0e:	53                   	push   %ebx
  40db0f:	4f                   	dec    %edi
  40db10:	52                   	push   %edx
  40db11:	5f                   	pop    %edi
  40db12:	6d                   	insl   (%dx),%es:(%edi)
  40db13:	61                   	popa   
  40db14:	78 00                	js     40db16 <.debug_info+0x1a6f>
  40db16:	1d 00 0b 69 78       	sbb    $0x78690b00,%eax
  40db1b:	38 36                	cmp    %dh,(%esi)
  40db1d:	5f                   	pop    %edi
  40db1e:	74 75                	je     40db95 <.debug_info+0x1aee>
  40db20:	6e                   	outsb  %ds:(%esi),(%dx)
  40db21:	65 00 07             	add    %al,%gs:(%edi)
  40db24:	19 09                	sbb    %ecx,(%ecx)
  40db26:	0f 18 00             	prefetchnta (%eax)
  40db29:	00 0b                	add    %cl,(%ebx)
  40db2b:	69 78 38 36 5f 61 72 	imul   $0x72615f36,0x38(%eax),%edi
  40db32:	63 68 00             	arpl   %bp,0x0(%eax)
  40db35:	07                   	pop    %es
  40db36:	1a 09                	sbb    (%ecx),%cl
  40db38:	0f 18 00             	prefetchnta (%eax)
  40db3b:	00 0b                	add    %cl,(%ebx)
  40db3d:	69 78 38 36 5f 70 72 	imul   $0x72705f36,0x38(%eax),%edi
  40db44:	65 66 65 72 72       	gs data16 gs jb 40dbbb <.debug_info+0x1b14>
  40db49:	65 64 5f             	gs fs pop %edi
  40db4c:	73 74                	jae    40dbc2 <.debug_info+0x1b1b>
  40db4e:	61                   	popa   
  40db4f:	63 6b 5f             	arpl   %bp,0x5f(%ebx)
  40db52:	62 6f 75             	bound  %ebp,0x75(%edi)
  40db55:	6e                   	outsb  %ds:(%esi),(%dx)
  40db56:	64 61                	fs popa 
  40db58:	72 79                	jb     40dbd3 <.debug_info+0x1b2c>
  40db5a:	00 07                	add    %al,(%edi)
  40db5c:	21 09                	and    %ecx,(%ecx)
  40db5e:	f8                   	clc    
  40db5f:	00 00                	add    %al,(%eax)
  40db61:	00 0b                	add    %cl,(%ebx)
  40db63:	69 78 38 36 5f 69 6e 	imul   $0x6e695f36,0x38(%eax),%edi
  40db6a:	63 6f 6d             	arpl   %bp,0x6d(%edi)
  40db6d:	69 6e 67 5f 73 74 61 	imul   $0x6174735f,0x67(%esi),%ebp
  40db74:	63 6b 5f             	arpl   %bp,0x5f(%ebx)
  40db77:	62 6f 75             	bound  %ebp,0x75(%edi)
  40db7a:	6e                   	outsb  %ds:(%esi),(%dx)
  40db7b:	64 61                	fs popa 
  40db7d:	72 79                	jb     40dbf8 <.debug_info+0x1b51>
  40db7f:	00 07                	add    %al,(%edi)
  40db81:	22 09                	and    (%ecx),%cl
  40db83:	f8                   	clc    
  40db84:	00 00                	add    %al,(%eax)
  40db86:	00 08                	add    %cl,(%eax)
  40db88:	5d                   	pop    %ebp
  40db89:	17                   	pop    %ss
  40db8a:	00 00                	add    %al,(%eax)
  40db8c:	f0 1a 00             	lock sbb (%eax),%al
  40db8f:	00 0c db             	add    %cl,(%ebx,%ebx,8)
  40db92:	02 00                	add    (%eax),%al
  40db94:	00 50 00             	add    %dl,0x0(%eax)
  40db97:	03 e0                	add    %eax,%esp
  40db99:	1a 00                	sbb    (%eax),%al
  40db9b:	00 0b                	add    %cl,(%ebx)
  40db9d:	72 65                	jb     40dc04 <.debug_info+0x1b5d>
  40db9f:	67 63 6c 61          	arpl   %bp,0x61(%si)
  40dba3:	73 73                	jae    40dc18 <.debug_info+0x1b71>
  40dba5:	5f                   	pop    %edi
  40dba6:	6d                   	insl   (%dx),%es:(%edi)
  40dba7:	61                   	popa   
  40dba8:	70 00                	jo     40dbaa <.debug_info+0x1b03>
  40dbaa:	07                   	pop    %es
  40dbab:	25 09 f0 1a 00       	and    $0x1af009,%eax
  40dbb0:	00 02                	add    %al,(%edx)
  40dbb2:	01 06                	add    %eax,(%esi)
  40dbb4:	73 69                	jae    40dc1f <.debug_info+0x1b78>
  40dbb6:	67 6e                	outsb  %ds:(%si),(%dx)
  40dbb8:	65 64 20 63 68       	gs and %ah,%fs:0x68(%ebx)
  40dbbd:	61                   	popa   
  40dbbe:	72 00                	jb     40dbc0 <.debug_info+0x1b19>
  40dbc0:	07                   	pop    %es
  40dbc1:	55                   	push   %ebp
  40dbc2:	51                   	push   %ecx
  40dbc3:	49                   	dec    %ecx
  40dbc4:	74 79                	je     40dc3f <.debug_info+0x1b98>
  40dbc6:	70 65                	jo     40dc2d <.debug_info+0x1b86>
  40dbc8:	00 09                	add    %cl,(%ecx)
  40dbca:	75 2b                	jne    40dbf7 <.debug_info+0x1b50>
  40dbcc:	04 00                	add    $0x0,%al
  40dbce:	00 03                	add    %al,(%ebx)
  40dbd0:	19 1b                	sbb    %ebx,(%ebx)
  40dbd2:	00 00                	add    %al,(%eax)
  40dbd4:	02 08                	add    (%eax),%cl
  40dbd6:	07                   	pop    %es
  40dbd7:	6c                   	insb   (%dx),%es:(%edi)
  40dbd8:	6f                   	outsl  %ds:(%esi),(%dx)
  40dbd9:	6e                   	outsb  %ds:(%esi),(%dx)
  40dbda:	67 20 6c 6f          	and    %ch,0x6f(%si)
  40dbde:	6e                   	outsb  %ds:(%esi),(%dx)
  40dbdf:	67 20 75 6e          	and    %dh,0x6e(%di)
  40dbe3:	73 69                	jae    40dc4e <.debug_info+0x1ba7>
  40dbe5:	67 6e                	outsb  %ds:(%si),(%dx)
  40dbe7:	65 64 20 69 6e       	gs and %ch,%fs:0x6e(%ecx)
  40dbec:	74 00                	je     40dbee <.debug_info+0x1b47>
  40dbee:	02 04 04             	add    (%esp,%eax,1),%al
  40dbf1:	66 6c                	data16 insb (%dx),%es:(%edi)
  40dbf3:	6f                   	outsl  %ds:(%esi),(%dx)
  40dbf4:	61                   	popa   
  40dbf5:	74 00                	je     40dbf7 <.debug_info+0x1b50>
  40dbf7:	02 08                	add    (%eax),%cl
  40dbf9:	03 63 6f             	add    0x6f(%ebx),%esp
  40dbfc:	6d                   	insl   (%dx),%es:(%edi)
  40dbfd:	70 6c                	jo     40dc6b <.debug_info+0x1bc4>
  40dbff:	65 78 20             	gs js  40dc22 <.debug_info+0x1b7b>
  40dc02:	66 6c                	data16 insb (%dx),%es:(%edi)
  40dc04:	6f                   	outsl  %ds:(%esi),(%dx)
  40dc05:	61                   	popa   
  40dc06:	74 00                	je     40dc08 <.debug_info+0x1b61>
  40dc08:	02 08                	add    (%eax),%cl
  40dc0a:	04 64                	add    $0x64,%al
  40dc0c:	6f                   	outsl  %ds:(%esi),(%dx)
  40dc0d:	75 62                	jne    40dc71 <.debug_info+0x1bca>
  40dc0f:	6c                   	insb   (%dx),%es:(%edi)
  40dc10:	65 00 02             	add    %al,%gs:(%edx)
  40dc13:	10 03                	adc    %al,(%ebx)
  40dc15:	63 6f 6d             	arpl   %bp,0x6d(%edi)
  40dc18:	70 6c                	jo     40dc86 <.debug_info+0x1bdf>
  40dc1a:	65 78 20             	gs js  40dc3d <.debug_info+0x1b96>
  40dc1d:	64 6f                	outsl  %fs:(%esi),(%dx)
  40dc1f:	75 62                	jne    40dc83 <.debug_info+0x1bdc>
  40dc21:	6c                   	insb   (%dx),%es:(%edi)
  40dc22:	65 00 02             	add    %al,%gs:(%edx)
  40dc25:	18 03                	sbb    %al,(%ebx)
  40dc27:	63 6f 6d             	arpl   %bp,0x6d(%edi)
  40dc2a:	70 6c                	jo     40dc98 <.debug_info+0x1bf1>
  40dc2c:	65 78 20             	gs js  40dc4f <.debug_info+0x1ba8>
  40dc2f:	6c                   	insb   (%dx),%es:(%edi)
  40dc30:	6f                   	outsl  %ds:(%esi),(%dx)
  40dc31:	6e                   	outsb  %ds:(%esi),(%dx)
  40dc32:	67 20 64 6f          	and    %ah,0x6f(%si)
  40dc36:	75 62                	jne    40dc9a <.debug_info+0x1bf3>
  40dc38:	6c                   	insb   (%dx),%es:(%edi)
  40dc39:	65 00 02             	add    %al,%gs:(%edx)
  40dc3c:	10 04 5f             	adc    %al,(%edi,%ebx,2)
  40dc3f:	5f                   	pop    %edi
  40dc40:	66 6c                	data16 insb (%dx),%es:(%edi)
  40dc42:	6f                   	outsl  %ds:(%esi),(%dx)
  40dc43:	61                   	popa   
  40dc44:	74 31                	je     40dc77 <.debug_info+0x1bd0>
  40dc46:	32 38                	xor    (%eax),%bh
  40dc48:	00 02                	add    %al,(%edx)
  40dc4a:	20 03                	and    %al,(%ebx)
  40dc4c:	5f                   	pop    %edi
  40dc4d:	5f                   	pop    %edi
  40dc4e:	75 6e                	jne    40dcbe <.debug_info+0x1c17>
  40dc50:	6b 6e 6f 77          	imul   $0x77,0x6f(%esi),%ebp
  40dc54:	6e                   	outsb  %ds:(%esi),(%dx)
  40dc55:	5f                   	pop    %edi
  40dc56:	5f                   	pop    %edi
  40dc57:	00 08                	add    %cl,(%eax)
  40dc59:	28 1b                	sub    %bl,(%ebx)
  40dc5b:	00 00                	add    %al,(%eax)
  40dc5d:	c1 1b 00             	rcrl   $0x0,(%ebx)
  40dc60:	00 0c db             	add    %cl,(%ebx,%ebx,8)
  40dc63:	02 00                	add    (%eax),%al
  40dc65:	00 ff                	add    %bh,%bh
  40dc67:	00 03                	add    %al,(%ebx)
  40dc69:	b1 1b                	mov    $0x1b,%cl
  40dc6b:	00 00                	add    %al,(%eax)
  40dc6d:	0b 5f 5f             	or     0x5f(%edi),%ebx
  40dc70:	70 6f                	jo     40dce1 <.debug_info+0x1c3a>
  40dc72:	70 63                	jo     40dcd7 <.debug_info+0x1c30>
  40dc74:	6f                   	outsl  %ds:(%esi),(%dx)
  40dc75:	75 6e                	jne    40dce5 <.debug_info+0x1c3e>
  40dc77:	74 5f                	je     40dcd8 <.debug_info+0x1c31>
  40dc79:	74 61                	je     40dcdc <.debug_info+0x1c35>
  40dc7b:	62 00                	bound  %eax,(%eax)
  40dc7d:	09 eb                	or     %ebp,%ebx
  40dc7f:	01 c1                	add    %eax,%ecx
  40dc81:	1b 00                	sbb    (%eax),%eax
  40dc83:	00 0b                	add    %cl,(%ebx)
  40dc85:	5f                   	pop    %edi
  40dc86:	5f                   	pop    %edi
  40dc87:	63 6c 7a 5f          	arpl   %bp,0x5f(%edx,%edi,2)
  40dc8b:	74 61                	je     40dcee <.debug_info+0x1c47>
  40dc8d:	62 00                	bound  %eax,(%eax)
  40dc8f:	09 f1                	or     %esi,%ecx
  40dc91:	01 c1                	add    %eax,%ecx
  40dc93:	1b 00                	sbb    (%eax),%eax
  40dc95:	00 07                	add    %al,(%edi)
  40dc97:	66 75 6e             	data16 jne 40dd08 <.debug_info+0x1c61>
  40dc9a:	63 5f 70             	arpl   %bx,0x70(%edi)
  40dc9d:	74 72                	je     40dd11 <.debug_info+0x1c6a>
  40dc9f:	00 0a                	add    %cl,(%edx)
  40dca1:	2a ff                	sub    %bh,%bh
  40dca3:	1b 00                	sbb    (%eax),%eax
  40dca5:	00 06                	add    %al,(%esi)
  40dca7:	04 05                	add    $0x5,%al
  40dca9:	1c 00                	sbb    $0x0,%al
  40dcab:	00 17                	add    %dl,(%edi)
  40dcad:	08 ef                	or     %ch,%bh
  40dcaf:	1b 00                	sbb    (%eax),%eax
  40dcb1:	00 11                	add    %dl,(%ecx)
  40dcb3:	1c 00                	sbb    $0x0,%al
  40dcb5:	00 09                	add    %cl,(%ecx)
  40dcb7:	00 0a                	add    %cl,(%edx)
  40dcb9:	5f                   	pop    %edi
  40dcba:	5f                   	pop    %edi
  40dcbb:	43                   	inc    %ebx
  40dcbc:	54                   	push   %esp
  40dcbd:	4f                   	dec    %edi
  40dcbe:	52                   	push   %edx
  40dcbf:	5f                   	pop    %edi
  40dcc0:	4c                   	dec    %esp
  40dcc1:	49                   	dec    %ecx
  40dcc2:	53                   	push   %ebx
  40dcc3:	54                   	push   %esp
  40dcc4:	5f                   	pop    %edi
  40dcc5:	5f                   	pop    %edi
  40dcc6:	00 0a                	add    %cl,(%edx)
  40dcc8:	2f                   	das    
  40dcc9:	06                   	push   %es
  40dcca:	1c 00                	sbb    $0x0,%al
  40dccc:	00 0a                	add    %cl,(%edx)
  40dcce:	5f                   	pop    %edi
  40dccf:	5f                   	pop    %edi
  40dcd0:	44                   	inc    %esp
  40dcd1:	54                   	push   %esp
  40dcd2:	4f                   	dec    %edi
  40dcd3:	52                   	push   %edx
  40dcd4:	5f                   	pop    %edi
  40dcd5:	4c                   	dec    %esp
  40dcd6:	49                   	dec    %ecx
  40dcd7:	53                   	push   %ebx
  40dcd8:	54                   	push   %esp
  40dcd9:	5f                   	pop    %edi
  40dcda:	5f                   	pop    %edi
  40dcdb:	00 0a                	add    %cl,(%edx)
  40dcdd:	30 06                	xor    %al,(%esi)
  40dcdf:	1c 00                	sbb    $0x0,%al
  40dce1:	00 18                	add    %bl,(%eax)
  40dce3:	11 1c 00             	adc    %ebx,(%eax,%eax,1)
  40dce6:	00 0b                	add    %cl,(%ebx)
  40dce8:	0e                   	push   %cs
  40dce9:	09 05 03 a0 3b 40    	or     %eax,0x403ba003
  40dcef:	00 18                	add    %bl,(%eax)
  40dcf1:	26 1c 00             	es sbb $0x0,%al
  40dcf4:	00 0b                	add    %cl,(%ebx)
  40dcf6:	0f 09                	wbinvd 
  40dcf8:	05 03 ac 3b 40       	add    $0x403bac03,%eax
	...

Disassembly of section .debug_abbrev:

0040e000 <.debug_abbrev>:
  40e000:	01 11                	add    %edx,(%ecx)
  40e002:	00 10                	add    %dl,(%eax)
  40e004:	06                   	push   %es
  40e005:	11 01                	adc    %eax,(%ecx)
  40e007:	12 01                	adc    (%ecx),%al
  40e009:	03 08                	add    (%eax),%ecx
  40e00b:	1b 08                	sbb    (%eax),%ecx
  40e00d:	25 08 13 05 00       	and    $0x51308,%eax
	...

0040e014 <.debug_abbrev>:
  40e014:	01 11                	add    %edx,(%ecx)
  40e016:	01 25 08 13 0b 03    	add    %esp,0x30b1308
  40e01c:	08 1b                	or     %bl,(%ebx)
  40e01e:	08 10                	or     %dl,(%eax)
  40e020:	17                   	pop    %ss
  40e021:	00 00                	add    %al,(%eax)
  40e023:	02 24 00             	add    (%eax,%eax,1),%ah
  40e026:	0b 0b                	or     (%ebx),%ecx
  40e028:	3e 0b 03             	or     %ds:(%ebx),%eax
  40e02b:	08 00                	or     %al,(%eax)
  40e02d:	00 03                	add    %al,(%ebx)
  40e02f:	26 00 49 13          	add    %cl,%es:0x13(%ecx)
  40e033:	00 00                	add    %al,(%eax)
  40e035:	04 13                	add    $0x13,%al
  40e037:	01 03                	add    %eax,(%ebx)
  40e039:	08 0b                	or     %cl,(%ebx)
  40e03b:	0b 3a                	or     (%edx),%edi
  40e03d:	0b 3b                	or     (%ebx),%edi
  40e03f:	0b 01                	or     (%ecx),%eax
  40e041:	13 00                	adc    (%eax),%eax
  40e043:	00 05 0d 00 03 08    	add    %al,0x803000d
  40e049:	3a 0b                	cmp    (%ebx),%cl
  40e04b:	3b 0b                	cmp    (%ebx),%ecx
  40e04d:	49                   	dec    %ecx
  40e04e:	13 38                	adc    (%eax),%edi
  40e050:	0b 00                	or     (%eax),%eax
  40e052:	00 06                	add    %al,(%esi)
  40e054:	0f 00 0b             	str    (%ebx)
  40e057:	0b 49 13             	or     0x13(%ecx),%ecx
  40e05a:	00 00                	add    %al,(%eax)
  40e05c:	07                   	pop    %es
  40e05d:	16                   	push   %ss
  40e05e:	00 03                	add    %al,(%ebx)
  40e060:	08 3a                	or     %bh,(%edx)
  40e062:	0b 3b                	or     (%ebx),%edi
  40e064:	0b 49 13             	or     0x13(%ecx),%ecx
  40e067:	00 00                	add    %al,(%eax)
  40e069:	08 01                	or     %al,(%ecx)
  40e06b:	01 49 13             	add    %ecx,0x13(%ecx)
  40e06e:	01 13                	add    %edx,(%ebx)
  40e070:	00 00                	add    %al,(%eax)
  40e072:	09 21                	or     %esp,(%ecx)
  40e074:	00 00                	add    %al,(%eax)
  40e076:	00 0a                	add    %cl,(%edx)
  40e078:	34 00                	xor    $0x0,%al
  40e07a:	03 08                	add    (%eax),%ecx
  40e07c:	3a 0b                	cmp    (%ebx),%cl
  40e07e:	3b 0b                	cmp    (%ebx),%ecx
  40e080:	49                   	dec    %ecx
  40e081:	13 3f                	adc    (%edi),%edi
  40e083:	19 3c 19             	sbb    %edi,(%ecx,%ebx,1)
  40e086:	00 00                	add    %al,(%eax)
  40e088:	0b 34 00             	or     (%eax,%eax,1),%esi
  40e08b:	03 08                	add    (%eax),%ecx
  40e08d:	3a 0b                	cmp    (%ebx),%cl
  40e08f:	3b 05 49 13 3f 19    	cmp    0x193f1349,%eax
  40e095:	3c 19                	cmp    $0x19,%al
  40e097:	00 00                	add    %al,(%eax)
  40e099:	0c 21                	or     $0x21,%al
  40e09b:	00 49 13             	add    %cl,0x13(%ecx)
  40e09e:	2f                   	das    
  40e09f:	0b 00                	or     (%eax),%eax
  40e0a1:	00 0d 15 01 27 19    	add    %cl,0x19270115
  40e0a7:	49                   	dec    %ecx
  40e0a8:	13 01                	adc    (%ecx),%eax
  40e0aa:	13 00                	adc    (%eax),%eax
  40e0ac:	00 0e                	add    %cl,(%esi)
  40e0ae:	05 00 49 13 00       	add    $0x134900,%eax
  40e0b3:	00 0f                	add    %cl,(%edi)
  40e0b5:	26 00 00             	add    %al,%es:(%eax)
  40e0b8:	00 10                	add    %dl,(%eax)
  40e0ba:	04 01                	add    $0x1,%al
  40e0bc:	03 08                	add    (%eax),%ecx
  40e0be:	0b 0b                	or     (%ebx),%ecx
  40e0c0:	49                   	dec    %ecx
  40e0c1:	13 3a                	adc    (%edx),%edi
  40e0c3:	0b 3b                	or     (%ebx),%edi
  40e0c5:	0b 01                	or     (%ecx),%eax
  40e0c7:	13 00                	adc    (%eax),%eax
  40e0c9:	00 11                	add    %dl,(%ecx)
  40e0cb:	28 00                	sub    %al,(%eax)
  40e0cd:	03 08                	add    (%eax),%ecx
  40e0cf:	1c 0b                	sbb    $0xb,%al
  40e0d1:	00 00                	add    %al,(%eax)
  40e0d3:	12 13                	adc    (%ebx),%dl
  40e0d5:	01 03                	add    %eax,(%ebx)
  40e0d7:	08 0b                	or     %cl,(%ebx)
  40e0d9:	05 3a 0b 3b 0b       	add    $0xb3b0b3a,%eax
  40e0de:	01 13                	add    %edx,(%ebx)
  40e0e0:	00 00                	add    %al,(%eax)
  40e0e2:	13 0d 00 03 08 3a    	adc    0x3a080300,%ecx
  40e0e8:	0b 3b                	or     (%ebx),%edi
  40e0ea:	05 49 13 38 0b       	add    $0xb381349,%eax
  40e0ef:	00 00                	add    %al,(%eax)
  40e0f1:	14 0d                	adc    $0xd,%al
  40e0f3:	00 03                	add    %al,(%ebx)
  40e0f5:	08 3a                	or     %bh,(%edx)
  40e0f7:	0b 3b                	or     (%ebx),%edi
  40e0f9:	05 49 13 38 05       	add    $0x5381349,%eax
  40e0fe:	00 00                	add    %al,(%eax)
  40e100:	15 04 01 03 08       	adc    $0x8030104,%eax
  40e105:	0b 0b                	or     (%ebx),%ecx
  40e107:	49                   	dec    %ecx
  40e108:	13 3a                	adc    (%edx),%edi
  40e10a:	0b 3b                	or     (%ebx),%edi
  40e10c:	05 01 13 00 00       	add    $0x1301,%eax
  40e111:	16                   	push   %ss
  40e112:	17                   	pop    %ss
  40e113:	00 03                	add    %al,(%ebx)
  40e115:	08 3c 19             	or     %bh,(%ecx,%ebx,1)
  40e118:	00 00                	add    %al,(%eax)
  40e11a:	17                   	pop    %ss
  40e11b:	15 00 27 19 00       	adc    $0x192700,%eax
  40e120:	00 18                	add    %bl,(%eax)
  40e122:	34 00                	xor    $0x0,%al
  40e124:	47                   	inc    %edi
  40e125:	13 3a                	adc    (%edx),%edi
  40e127:	0b 3b                	or     (%ebx),%edi
  40e129:	05 02 18 00 00       	add    $0x1802,%eax
	...

Disassembly of section .debug_line:

0040f000 <.debug_line>:
  40f000:	6d                   	insl   (%dx),%es:(%edi)
  40f001:	00 00                	add    %al,(%eax)
  40f003:	00 02                	add    %al,(%edx)
  40f005:	00 49 00             	add    %cl,0x0(%ecx)
  40f008:	00 00                	add    %al,(%eax)
  40f00a:	01 01                	add    %eax,(%ecx)
  40f00c:	fb                   	sti    
  40f00d:	0e                   	push   %cs
  40f00e:	0d 00 01 01 01       	or     $0x1010100,%eax
  40f013:	01 00                	add    %eax,(%eax)
  40f015:	00 00                	add    %al,(%eax)
  40f017:	01 00                	add    %eax,(%eax)
  40f019:	00 01                	add    %al,(%ecx)
  40f01b:	2e 2e 2f             	cs cs das 
  40f01e:	2e 2e 2f             	cs cs das 
  40f021:	2e 2e 2f             	cs cs das 
  40f024:	73 72                	jae    40f098 <.debug_line+0x27>
  40f026:	63 2f                	arpl   %bp,(%edi)
  40f028:	67 63 63 2d          	arpl   %sp,0x2d(%bp,%di)
  40f02c:	36 2e 33 2e          	ss xor %cs:(%esi),%ebp
  40f030:	30 2f                	xor    %ch,(%edi)
  40f032:	6c                   	insb   (%dx),%es:(%edi)
  40f033:	69 62 67 63 63 2f 63 	imul   $0x632f6363,0x67(%edx),%esp
  40f03a:	6f                   	outsl  %ds:(%esi),(%dx)
  40f03b:	6e                   	outsb  %ds:(%esi),(%dx)
  40f03c:	66 69 67 2f 69 33    	imul   $0x3369,0x2f(%edi),%sp
  40f042:	38 36                	cmp    %dh,(%esi)
  40f044:	00 00                	add    %al,(%eax)
  40f046:	63 79 67             	arpl   %di,0x67(%ecx)
  40f049:	77 69                	ja     40f0b4 <.debug_line+0x43>
  40f04b:	6e                   	outsb  %ds:(%esi),(%dx)
  40f04c:	2e 53                	cs push %ebx
  40f04e:	00 01                	add    %al,(%ecx)
  40f050:	00 00                	add    %al,(%eax)
  40f052:	00 00                	add    %al,(%eax)
  40f054:	05 02 20 20 40       	add    $0x40202002,%eax
  40f059:	00 03                	add    %al,(%ebx)
  40f05b:	a2 01 01 22 22       	mov    %al,0x22220101
  40f060:	59                   	pop    %ecx
  40f061:	4b                   	dec    %ebx
  40f062:	30 67 3d             	xor    %ah,0x3d(%edi)
  40f065:	59                   	pop    %ecx
  40f066:	59                   	pop    %ecx
  40f067:	30 2f                	xor    %ch,(%edi)
  40f069:	3e 22 22             	and    %ds:(%edx),%ah
  40f06c:	02 01                	add    (%ecx),%al
  40f06e:	00 01                	add    %al,(%ecx)
  40f070:	01 53 01             	add    %edx,0x1(%ebx)

0040f071 <.debug_line>:
  40f071:	53                   	push   %ebx
  40f072:	01 00                	add    %eax,(%eax)
  40f074:	00 02                	add    %al,(%edx)
  40f076:	00 4d 01             	add    %cl,0x1(%ebp)
  40f079:	00 00                	add    %al,(%eax)
  40f07b:	01 01                	add    %eax,(%ecx)
  40f07d:	fb                   	sti    
  40f07e:	0e                   	push   %cs
  40f07f:	0d 00 01 01 01       	or     $0x1010100,%eax
  40f084:	01 00                	add    %eax,(%eax)
  40f086:	00 00                	add    %al,(%eax)
  40f088:	01 00                	add    %eax,(%eax)
  40f08a:	00 01                	add    %al,(%ecx)
  40f08c:	2f                   	das    
  40f08d:	68 6f 6d 65 2f       	push   $0x2f656d6f
  40f092:	6b 65 69 74          	imul   $0x74,0x69(%ebp),%esp
  40f096:	68 2f 6d 69 6e       	push   $0x6e696d2f
  40f09b:	67 77 33             	addr16 ja 40f0d1 <.debug_line+0x60>
  40f09e:	32 2d 67 63 63 2d    	xor    0x2d636367,%ch
  40f0a4:	36 2e 33 2e          	ss xor %cs:(%esi),%ebp
  40f0a8:	30 2f                	xor    %ch,(%edi)
  40f0aa:	69 6e 63 6c 75 64 65 	imul   $0x6564756c,0x63(%esi),%ebp
  40f0b1:	00 2e                	add    %ch,(%esi)
  40f0b3:	2e 2f                	cs das 
  40f0b5:	2e 2e 2f             	cs cs das 
  40f0b8:	2e 2e 2f             	cs cs das 
  40f0bb:	73 72                	jae    40f12f <.debug_line+0xbe>
  40f0bd:	63 2f                	arpl   %bp,(%edi)
  40f0bf:	67 63 63 2d          	arpl   %sp,0x2d(%bp,%di)
  40f0c3:	36 2e 33 2e          	ss xor %cs:(%esi),%ebp
  40f0c7:	30 2f                	xor    %ch,(%edi)
  40f0c9:	6c                   	insb   (%dx),%es:(%edi)
  40f0ca:	69 62 67 63 63 2f 2e 	imul   $0x2e2f6363,0x67(%edx),%esp
  40f0d1:	2e 2f                	cs das 
  40f0d3:	69 6e 63 6c 75 64 65 	imul   $0x6564756c,0x63(%esi),%ebp
  40f0da:	00 2e                	add    %ch,(%esi)
  40f0dc:	2e 2f                	cs das 
  40f0de:	2e 2e 2f             	cs cs das 
  40f0e1:	2e 2f                	cs das 
  40f0e3:	67 63 63 00          	arpl   %sp,0x0(%bp,%di)
  40f0e7:	2e 2e 2f             	cs cs das 
  40f0ea:	2e 2e 2f             	cs cs das 
  40f0ed:	2e 2e 2f             	cs cs das 
  40f0f0:	73 72                	jae    40f164 <.debug_line+0xf3>
  40f0f2:	63 2f                	arpl   %bp,(%edi)
  40f0f4:	67 63 63 2d          	arpl   %sp,0x2d(%bp,%di)
  40f0f8:	36 2e 33 2e          	ss xor %cs:(%esi),%ebp
  40f0fc:	30 2f                	xor    %ch,(%edi)
  40f0fe:	6c                   	insb   (%dx),%es:(%edi)
  40f0ff:	69 62 67 63 63 2f 2e 	imul   $0x2e2f6363,0x67(%edx),%esp
  40f106:	2e 2f                	cs das 
  40f108:	67 63 63 2f          	arpl   %sp,0x2f(%bp,%di)
  40f10c:	63 6f 6e             	arpl   %bp,0x6e(%edi)
  40f10f:	66 69 67 2f 69 33    	imul   $0x3369,0x2f(%edi),%sp
  40f115:	38 36                	cmp    %dh,(%esi)
  40f117:	00 2e                	add    %ch,(%esi)
  40f119:	2e 2f                	cs das 
  40f11b:	2e 2e 2f             	cs cs das 
  40f11e:	2e 2e 2f             	cs cs das 
  40f121:	73 72                	jae    40f195 <.debug_line+0x124>
  40f123:	63 2f                	arpl   %bp,(%edi)
  40f125:	67 63 63 2d          	arpl   %sp,0x2d(%bp,%di)
  40f129:	36 2e 33 2e          	ss xor %cs:(%esi),%ebp
  40f12d:	30 2f                	xor    %ch,(%edi)
  40f12f:	6c                   	insb   (%dx),%es:(%edi)
  40f130:	69 62 67 63 63 00 00 	imul   $0x6363,0x67(%edx),%esp
  40f137:	73 74                	jae    40f1ad <.debug_line+0x13c>
  40f139:	64 69 6f 2e 68 00 01 	imul   $0x10068,%fs:0x2e(%edi),%ebp
  40f140:	00 
  40f141:	00 73 74             	add    %dh,0x74(%ebx)
  40f144:	64 6c                	fs insb (%dx),%es:(%edi)
  40f146:	69 62 2e 68 00 01 00 	imul   $0x10068,0x2e(%edx),%esp
  40f14d:	00 67 65             	add    %ah,0x65(%edi)
  40f150:	74 6f                	je     40f1c1 <.debug_line+0x150>
  40f152:	70 74                	jo     40f1c8 <.debug_line+0x157>
  40f154:	2e 68 00 01 00 00    	cs push $0x100
  40f15a:	74 69                	je     40f1c5 <.debug_line+0x154>
  40f15c:	6d                   	insl   (%dx),%es:(%edi)
  40f15d:	65 2e 68 00 01 00 00 	gs cs push $0x100
  40f164:	68 61 73 68 74       	push   $0x74687361
  40f169:	61                   	popa   
  40f16a:	62 2e                	bound  %ebp,(%esi)
  40f16c:	68 00 02 00 00       	push   $0x200
  40f171:	69 6e 73 6e 2d 63 6f 	imul   $0x6f632d6e,0x73(%esi),%ebp
  40f178:	6e                   	outsb  %ds:(%esi),(%dx)
  40f179:	73 74                	jae    40f1ef <.debug_line+0x17e>
  40f17b:	61                   	popa   
  40f17c:	6e                   	outsb  %ds:(%esi),(%dx)
  40f17d:	74 73                	je     40f1f2 <.debug_line+0x181>
  40f17f:	2e 68 00 03 00 00    	cs push $0x300
  40f185:	69 33 38 36 2e 68    	imul   $0x682e3638,(%ebx),%esi
  40f18b:	00 04 00             	add    %al,(%eax,%eax,1)
  40f18e:	00 69 33             	add    %ch,0x33(%ecx)
  40f191:	38 36                	cmp    %dh,(%esi)
  40f193:	2d 6f 70 74 73       	sub    $0x7374706f,%eax
  40f198:	2e 68 00 04 00 00    	cs push $0x400
  40f19e:	6c                   	insb   (%dx),%es:(%edi)
  40f19f:	69 62 67 63 63 32 2e 	imul   $0x2e326363,0x67(%edx),%esp
  40f1a6:	68 00 05 00 00       	push   $0x500
  40f1ab:	67 62 6c 2d          	bound  %ebp,0x2d(%si)
  40f1af:	63 74 6f 72          	arpl   %si,0x72(%edi,%ebp,2)
  40f1b3:	73 2e                	jae    40f1e3 <.debug_line+0x172>
  40f1b5:	68 00 05 00 00       	push   $0x500
  40f1ba:	6c                   	insb   (%dx),%es:(%edi)
  40f1bb:	69 62 67 63 63 32 2e 	imul   $0x2e326363,0x67(%edx),%esp
  40f1c2:	63 00                	arpl   %ax,(%eax)
  40f1c4:	05                   	.byte 0x5
  40f1c5:	00 00                	add    %al,(%eax)
	...

Disassembly of section .debug_frame:

00410000 <.debug_frame>:
  410000:	10 00                	adc    %al,(%eax)
  410002:	00 00                	add    %al,(%eax)
  410004:	ff                   	(bad)  
  410005:	ff                   	(bad)  
  410006:	ff                   	(bad)  
  410007:	ff 01                	incl   (%ecx)
  410009:	00 01                	add    %al,(%ecx)
  41000b:	7c 08                	jl     410015 <.debug_frame+0x15>
  41000d:	0c 04                	or     $0x4,%al
  41000f:	04 88                	add    $0x88,%al
  410011:	01 00                	add    %eax,(%eax)
  410013:	00 20                	add    %ah,(%eax)
  410015:	00 00                	add    %al,(%eax)
  410017:	00 00                	add    %al,(%eax)
  410019:	00 00                	add    %al,(%eax)
  41001b:	00 20                	add    %ah,(%eax)
  41001d:	20 40 00             	and    %al,0x0(%eax)
  410020:	2a 00                	sub    (%eax),%al
  410022:	00 00                	add    %al,(%eax)
  410024:	41                   	inc    %ecx
  410025:	0e                   	push   %cs
  410026:	08 81 02 41 0e 0c    	or     %al,0xc0e4102(%ecx)
  41002c:	80 03 66             	addb   $0x66,(%ebx)
  41002f:	0e                   	push   %cs
  410030:	08 c0                	or     %al,%al
  410032:	41                   	inc    %ecx
  410033:	0e                   	push   %cs
  410034:	04 c1                	add    $0xc1,%al
	...
